
out/HAL_demo.elf:     file format elf32-littlearm


Disassembly of section .isr_vector:

08000000 <g_pfnVectors>:
 8000000:	20030000 	andcs	r0, r3, r0
 8000004:	080128f1 	stmdaeq	r1, {r0, r4, r5, r6, r7, fp, sp}
 8000008:	08010aed 	stmdaeq	r1, {r0, r2, r3, r5, r6, r7, r9, fp}
 800000c:	08010bcd 	stmdaeq	r1, {r0, r2, r3, r6, r7, r8, r9, fp}
 8000010:	08010be5 	stmdaeq	r1, {r0, r2, r5, r6, r7, r8, r9, fp}
 8000014:	08010beb 	stmdaeq	r1, {r0, r1, r3, r5, r6, r7, r8, r9, fp}
 8000018:	08010bf1 	stmdaeq	r1, {r0, r4, r5, r6, r7, r8, r9, fp}
	...
 800002c:	08004239 	stmdaeq	r0, {r0, r3, r4, r5, r9, lr}
 8000030:	08010c05 	stmdaeq	r1, {r0, r2, sl, fp}
 8000034:	00000000 	andeq	r0, r0, r0
 8000038:	08004471 	stmdaeq	r0, {r0, r4, r5, r6, sl, lr}
 800003c:	080044d3 	stmdaeq	r0, {r0, r1, r4, r6, r7, sl, lr}
 8000040:	0801293d 	stmdaeq	r1, {r0, r2, r3, r4, r5, r8, fp, sp}
 8000044:	0801293d 	stmdaeq	r1, {r0, r2, r3, r4, r5, r8, fp, sp}
 8000048:	0801293d 	stmdaeq	r1, {r0, r2, r3, r4, r5, r8, fp, sp}
 800004c:	0801293d 	stmdaeq	r1, {r0, r2, r3, r4, r5, r8, fp, sp}
 8000050:	0801293d 	stmdaeq	r1, {r0, r2, r3, r4, r5, r8, fp, sp}
 8000054:	0801293d 	stmdaeq	r1, {r0, r2, r3, r4, r5, r8, fp, sp}
 8000058:	0801293d 	stmdaeq	r1, {r0, r2, r3, r4, r5, r8, fp, sp}
 800005c:	0801293d 	stmdaeq	r1, {r0, r2, r3, r4, r5, r8, fp, sp}
 8000060:	0801293d 	stmdaeq	r1, {r0, r2, r3, r4, r5, r8, fp, sp}
 8000064:	0801293d 	stmdaeq	r1, {r0, r2, r3, r4, r5, r8, fp, sp}
 8000068:	0801293d 	stmdaeq	r1, {r0, r2, r3, r4, r5, r8, fp, sp}
 800006c:	0801293d 	stmdaeq	r1, {r0, r2, r3, r4, r5, r8, fp, sp}
 8000070:	0801293d 	stmdaeq	r1, {r0, r2, r3, r4, r5, r8, fp, sp}
 8000074:	0801293d 	stmdaeq	r1, {r0, r2, r3, r4, r5, r8, fp, sp}
 8000078:	0801293d 	stmdaeq	r1, {r0, r2, r3, r4, r5, r8, fp, sp}
 800007c:	0801293d 	stmdaeq	r1, {r0, r2, r3, r4, r5, r8, fp, sp}
 8000080:	0801293d 	stmdaeq	r1, {r0, r2, r3, r4, r5, r8, fp, sp}
 8000084:	0801293d 	stmdaeq	r1, {r0, r2, r3, r4, r5, r8, fp, sp}
 8000088:	0801293d 	stmdaeq	r1, {r0, r2, r3, r4, r5, r8, fp, sp}
 800008c:	0801293d 	stmdaeq	r1, {r0, r2, r3, r4, r5, r8, fp, sp}
 8000090:	0801293d 	stmdaeq	r1, {r0, r2, r3, r4, r5, r8, fp, sp}
 8000094:	0801293d 	stmdaeq	r1, {r0, r2, r3, r4, r5, r8, fp, sp}
 8000098:	0801293d 	stmdaeq	r1, {r0, r2, r3, r4, r5, r8, fp, sp}
 800009c:	0801293d 	stmdaeq	r1, {r0, r2, r3, r4, r5, r8, fp, sp}
 80000a0:	0801293d 	stmdaeq	r1, {r0, r2, r3, r4, r5, r8, fp, sp}
 80000a4:	0801293d 	stmdaeq	r1, {r0, r2, r3, r4, r5, r8, fp, sp}
 80000a8:	0801293d 	stmdaeq	r1, {r0, r2, r3, r4, r5, r8, fp, sp}
 80000ac:	0801293d 	stmdaeq	r1, {r0, r2, r3, r4, r5, r8, fp, sp}
 80000b0:	0801293d 	stmdaeq	r1, {r0, r2, r3, r4, r5, r8, fp, sp}
 80000b4:	0801293d 	stmdaeq	r1, {r0, r2, r3, r4, r5, r8, fp, sp}
 80000b8:	0801293d 	stmdaeq	r1, {r0, r2, r3, r4, r5, r8, fp, sp}
 80000bc:	0801293d 	stmdaeq	r1, {r0, r2, r3, r4, r5, r8, fp, sp}
 80000c0:	0801293d 	stmdaeq	r1, {r0, r2, r3, r4, r5, r8, fp, sp}
 80000c4:	0801293d 	stmdaeq	r1, {r0, r2, r3, r4, r5, r8, fp, sp}
 80000c8:	0801293d 	stmdaeq	r1, {r0, r2, r3, r4, r5, r8, fp, sp}
 80000cc:	0801293d 	stmdaeq	r1, {r0, r2, r3, r4, r5, r8, fp, sp}
 80000d0:	0801293d 	stmdaeq	r1, {r0, r2, r3, r4, r5, r8, fp, sp}
 80000d4:	0801293d 	stmdaeq	r1, {r0, r2, r3, r4, r5, r8, fp, sp}
 80000d8:	0801293d 	stmdaeq	r1, {r0, r2, r3, r4, r5, r8, fp, sp}
 80000dc:	0801293d 	stmdaeq	r1, {r0, r2, r3, r4, r5, r8, fp, sp}
 80000e0:	0801293d 	stmdaeq	r1, {r0, r2, r3, r4, r5, r8, fp, sp}
 80000e4:	0801293d 	stmdaeq	r1, {r0, r2, r3, r4, r5, r8, fp, sp}
 80000e8:	0801293d 	stmdaeq	r1, {r0, r2, r3, r4, r5, r8, fp, sp}
 80000ec:	0801293d 	stmdaeq	r1, {r0, r2, r3, r4, r5, r8, fp, sp}
 80000f0:	0801293d 	stmdaeq	r1, {r0, r2, r3, r4, r5, r8, fp, sp}
 80000f4:	0801293d 	stmdaeq	r1, {r0, r2, r3, r4, r5, r8, fp, sp}
 80000f8:	0801293d 	stmdaeq	r1, {r0, r2, r3, r4, r5, r8, fp, sp}
 80000fc:	0801293d 	stmdaeq	r1, {r0, r2, r3, r4, r5, r8, fp, sp}
 8000100:	0801293d 	stmdaeq	r1, {r0, r2, r3, r4, r5, r8, fp, sp}
 8000104:	0801293d 	stmdaeq	r1, {r0, r2, r3, r4, r5, r8, fp, sp}
 8000108:	0801293d 	stmdaeq	r1, {r0, r2, r3, r4, r5, r8, fp, sp}
 800010c:	0801293d 	stmdaeq	r1, {r0, r2, r3, r4, r5, r8, fp, sp}
 8000110:	0801293d 	stmdaeq	r1, {r0, r2, r3, r4, r5, r8, fp, sp}
 8000114:	0801293d 	stmdaeq	r1, {r0, r2, r3, r4, r5, r8, fp, sp}
 8000118:	0801293d 	stmdaeq	r1, {r0, r2, r3, r4, r5, r8, fp, sp}
 800011c:	0801293d 	stmdaeq	r1, {r0, r2, r3, r4, r5, r8, fp, sp}
 8000120:	0801293d 	stmdaeq	r1, {r0, r2, r3, r4, r5, r8, fp, sp}
 8000124:	0801293d 	stmdaeq	r1, {r0, r2, r3, r4, r5, r8, fp, sp}
 8000128:	0801293d 	stmdaeq	r1, {r0, r2, r3, r4, r5, r8, fp, sp}
 800012c:	0801293d 	stmdaeq	r1, {r0, r2, r3, r4, r5, r8, fp, sp}
 8000130:	0801293d 	stmdaeq	r1, {r0, r2, r3, r4, r5, r8, fp, sp}
 8000134:	0801293d 	stmdaeq	r1, {r0, r2, r3, r4, r5, r8, fp, sp}
 8000138:	0801293d 	stmdaeq	r1, {r0, r2, r3, r4, r5, r8, fp, sp}
 800013c:	0801293d 	stmdaeq	r1, {r0, r2, r3, r4, r5, r8, fp, sp}
 8000140:	0801293d 	stmdaeq	r1, {r0, r2, r3, r4, r5, r8, fp, sp}
 8000144:	0801293d 	stmdaeq	r1, {r0, r2, r3, r4, r5, r8, fp, sp}
 8000148:	0801293d 	stmdaeq	r1, {r0, r2, r3, r4, r5, r8, fp, sp}
 800014c:	0801293d 	stmdaeq	r1, {r0, r2, r3, r4, r5, r8, fp, sp}
 8000150:	0801293d 	stmdaeq	r1, {r0, r2, r3, r4, r5, r8, fp, sp}
 8000154:	0801293d 	stmdaeq	r1, {r0, r2, r3, r4, r5, r8, fp, sp}
 8000158:	0801293d 	stmdaeq	r1, {r0, r2, r3, r4, r5, r8, fp, sp}
 800015c:	0801293d 	stmdaeq	r1, {r0, r2, r3, r4, r5, r8, fp, sp}
 8000160:	0801293d 	stmdaeq	r1, {r0, r2, r3, r4, r5, r8, fp, sp}
 8000164:	0801293d 	stmdaeq	r1, {r0, r2, r3, r4, r5, r8, fp, sp}
 8000168:	0801293d 	stmdaeq	r1, {r0, r2, r3, r4, r5, r8, fp, sp}
 800016c:	0801293d 	stmdaeq	r1, {r0, r2, r3, r4, r5, r8, fp, sp}
 8000170:	0801293d 	stmdaeq	r1, {r0, r2, r3, r4, r5, r8, fp, sp}
 8000174:	0801293d 	stmdaeq	r1, {r0, r2, r3, r4, r5, r8, fp, sp}
 8000178:	0801293d 	stmdaeq	r1, {r0, r2, r3, r4, r5, r8, fp, sp}
 800017c:	00000000 	andeq	r0, r0, r0
 8000180:	0801293d 	stmdaeq	r1, {r0, r2, r3, r4, r5, r8, fp, sp}
 8000184:	0801293d 	stmdaeq	r1, {r0, r2, r3, r4, r5, r8, fp, sp}
 8000188:	0801293d 	stmdaeq	r1, {r0, r2, r3, r4, r5, r8, fp, sp}
 800018c:	0801293d 	stmdaeq	r1, {r0, r2, r3, r4, r5, r8, fp, sp}
 8000190:	0801293d 	stmdaeq	r1, {r0, r2, r3, r4, r5, r8, fp, sp}
 8000194:	0801293d 	stmdaeq	r1, {r0, r2, r3, r4, r5, r8, fp, sp}
 8000198:	0801293d 	stmdaeq	r1, {r0, r2, r3, r4, r5, r8, fp, sp}
 800019c:	0801293d 	stmdaeq	r1, {r0, r2, r3, r4, r5, r8, fp, sp}
 80001a0:	0801293d 	stmdaeq	r1, {r0, r2, r3, r4, r5, r8, fp, sp}
 80001a4:	0801293d 	stmdaeq	r1, {r0, r2, r3, r4, r5, r8, fp, sp}
 80001a8:	0801293d 	stmdaeq	r1, {r0, r2, r3, r4, r5, r8, fp, sp}

Disassembly of section .text:

080001c0 <__io_putchar>:
 80001c0:	b580      	push	{r7, lr}
 80001c2:	b082      	sub	sp, #8
 80001c4:	af00      	add	r7, sp, #0
 80001c6:	6078      	str	r0, [r7, #4]
 80001c8:	1d39      	adds	r1, r7, #4
 80001ca:	230a      	movs	r3, #10
 80001cc:	2201      	movs	r2, #1
 80001ce:	4804      	ldr	r0, [pc, #16]	; (80001e0 <__io_putchar+0x20>)
 80001d0:	f007 fcf2 	bl	8007bb8 <HAL_UART_Transmit>
 80001d4:	2300      	movs	r3, #0
 80001d6:	4618      	mov	r0, r3
 80001d8:	3708      	adds	r7, #8
 80001da:	46bd      	mov	sp, r7
 80001dc:	bd80      	pop	{r7, pc}
 80001de:	bf00      	nop
 80001e0:	20008498 	mulcs	r0, r8, r4

080001e4 <__io_getchar>:
 80001e4:	b480      	push	{r7}
 80001e6:	af00      	add	r7, sp, #0
 80001e8:	2300      	movs	r3, #0
 80001ea:	4618      	mov	r0, r3
 80001ec:	46bd      	mov	sp, r7
 80001ee:	f85d 7b04 	ldr.w	r7, [sp], #4
 80001f2:	4770      	bx	lr

080001f4 <_close>:
 80001f4:	b480      	push	{r7}
 80001f6:	b083      	sub	sp, #12
 80001f8:	af00      	add	r7, sp, #0
 80001fa:	6078      	str	r0, [r7, #4]
 80001fc:	f04f 33ff 	mov.w	r3, #4294967295	; 0xffffffff
 8000200:	4618      	mov	r0, r3
 8000202:	370c      	adds	r7, #12
 8000204:	46bd      	mov	sp, r7
 8000206:	f85d 7b04 	ldr.w	r7, [sp], #4
 800020a:	4770      	bx	lr

0800020c <_stat>:
 800020c:	b480      	push	{r7}
 800020e:	b083      	sub	sp, #12
 8000210:	af00      	add	r7, sp, #0
 8000212:	6078      	str	r0, [r7, #4]
 8000214:	6039      	str	r1, [r7, #0]
 8000216:	683b      	ldr	r3, [r7, #0]
 8000218:	f44f 5200 	mov.w	r2, #8192	; 0x2000
 800021c:	605a      	str	r2, [r3, #4]
 800021e:	2300      	movs	r3, #0
 8000220:	4618      	mov	r0, r3
 8000222:	370c      	adds	r7, #12
 8000224:	46bd      	mov	sp, r7
 8000226:	f85d 7b04 	ldr.w	r7, [sp], #4
 800022a:	4770      	bx	lr

0800022c <_fstat>:
 800022c:	b480      	push	{r7}
 800022e:	b083      	sub	sp, #12
 8000230:	af00      	add	r7, sp, #0
 8000232:	6078      	str	r0, [r7, #4]
 8000234:	6039      	str	r1, [r7, #0]
 8000236:	683b      	ldr	r3, [r7, #0]
 8000238:	f44f 5200 	mov.w	r2, #8192	; 0x2000
 800023c:	605a      	str	r2, [r3, #4]
 800023e:	2300      	movs	r3, #0
 8000240:	4618      	mov	r0, r3
 8000242:	370c      	adds	r7, #12
 8000244:	46bd      	mov	sp, r7
 8000246:	f85d 7b04 	ldr.w	r7, [sp], #4
 800024a:	4770      	bx	lr

0800024c <_isatty>:
 800024c:	b480      	push	{r7}
 800024e:	b083      	sub	sp, #12
 8000250:	af00      	add	r7, sp, #0
 8000252:	6078      	str	r0, [r7, #4]
 8000254:	2301      	movs	r3, #1
 8000256:	4618      	mov	r0, r3
 8000258:	370c      	adds	r7, #12
 800025a:	46bd      	mov	sp, r7
 800025c:	f85d 7b04 	ldr.w	r7, [sp], #4
 8000260:	4770      	bx	lr

08000262 <_lseek>:
 8000262:	b480      	push	{r7}
 8000264:	b085      	sub	sp, #20
 8000266:	af00      	add	r7, sp, #0
 8000268:	60f8      	str	r0, [r7, #12]
 800026a:	60b9      	str	r1, [r7, #8]
 800026c:	607a      	str	r2, [r7, #4]
 800026e:	2300      	movs	r3, #0
 8000270:	4618      	mov	r0, r3
 8000272:	3714      	adds	r7, #20
 8000274:	46bd      	mov	sp, r7
 8000276:	f85d 7b04 	ldr.w	r7, [sp], #4
 800027a:	4770      	bx	lr

0800027c <_open>:
 800027c:	b480      	push	{r7}
 800027e:	b085      	sub	sp, #20
 8000280:	af00      	add	r7, sp, #0
 8000282:	60f8      	str	r0, [r7, #12]
 8000284:	60b9      	str	r1, [r7, #8]
 8000286:	607a      	str	r2, [r7, #4]
 8000288:	f04f 33ff 	mov.w	r3, #4294967295	; 0xffffffff
 800028c:	4618      	mov	r0, r3
 800028e:	3714      	adds	r7, #20
 8000290:	46bd      	mov	sp, r7
 8000292:	f85d 7b04 	ldr.w	r7, [sp], #4
 8000296:	4770      	bx	lr

08000298 <_read>:
 8000298:	b480      	push	{r7}
 800029a:	b085      	sub	sp, #20
 800029c:	af00      	add	r7, sp, #0
 800029e:	60f8      	str	r0, [r7, #12]
 80002a0:	60b9      	str	r1, [r7, #8]
 80002a2:	607a      	str	r2, [r7, #4]
 80002a4:	2300      	movs	r3, #0
 80002a6:	4618      	mov	r0, r3
 80002a8:	3714      	adds	r7, #20
 80002aa:	46bd      	mov	sp, r7
 80002ac:	f85d 7b04 	ldr.w	r7, [sp], #4
 80002b0:	4770      	bx	lr

080002b2 <_write>:
 80002b2:	b580      	push	{r7, lr}
 80002b4:	b084      	sub	sp, #16
 80002b6:	af00      	add	r7, sp, #0
 80002b8:	60f8      	str	r0, [r7, #12]
 80002ba:	60b9      	str	r1, [r7, #8]
 80002bc:	607a      	str	r2, [r7, #4]
 80002be:	687b      	ldr	r3, [r7, #4]
 80002c0:	b29a      	uxth	r2, r3
 80002c2:	230a      	movs	r3, #10
 80002c4:	68b9      	ldr	r1, [r7, #8]
 80002c6:	4804      	ldr	r0, [pc, #16]	; (80002d8 <_write+0x26>)
 80002c8:	f007 fc76 	bl	8007bb8 <HAL_UART_Transmit>
 80002cc:	687b      	ldr	r3, [r7, #4]
 80002ce:	4618      	mov	r0, r3
 80002d0:	3710      	adds	r7, #16
 80002d2:	46bd      	mov	sp, r7
 80002d4:	bd80      	pop	{r7, pc}
 80002d6:	bf00      	nop
 80002d8:	20008498 	mulcs	r0, r8, r4

080002dc <_sbrk_r>:
 80002dc:	b480      	push	{r7}
 80002de:	b085      	sub	sp, #20
 80002e0:	af00      	add	r7, sp, #0
 80002e2:	6078      	str	r0, [r7, #4]
 80002e4:	6039      	str	r1, [r7, #0]
 80002e6:	f3ef 8308 	mrs	r3, MSP
 80002ea:	60fb      	str	r3, [r7, #12]
 80002ec:	4b0f      	ldr	r3, [pc, #60]	; (800032c <_sbrk_r+0x50>)
 80002ee:	681b      	ldr	r3, [r3, #0]
 80002f0:	2b00      	cmp	r3, #0
 80002f2:	d102      	bne.n	80002fa <_sbrk_r+0x1e>
 80002f4:	4b0d      	ldr	r3, [pc, #52]	; (800032c <_sbrk_r+0x50>)
 80002f6:	4a0e      	ldr	r2, [pc, #56]	; (8000330 <_sbrk_r+0x54>)
 80002f8:	601a      	str	r2, [r3, #0]
 80002fa:	4b0c      	ldr	r3, [pc, #48]	; (800032c <_sbrk_r+0x50>)
 80002fc:	681b      	ldr	r3, [r3, #0]
 80002fe:	60bb      	str	r3, [r7, #8]
 8000300:	68ba      	ldr	r2, [r7, #8]
 8000302:	683b      	ldr	r3, [r7, #0]
 8000304:	4413      	add	r3, r2
 8000306:	68fa      	ldr	r2, [r7, #12]
 8000308:	429a      	cmp	r2, r3
 800030a:	d202      	bcs.n	8000312 <_sbrk_r+0x36>
 800030c:	f04f 33ff 	mov.w	r3, #4294967295	; 0xffffffff
 8000310:	e006      	b.n	8000320 <_sbrk_r+0x44>
 8000312:	4b06      	ldr	r3, [pc, #24]	; (800032c <_sbrk_r+0x50>)
 8000314:	681a      	ldr	r2, [r3, #0]
 8000316:	683b      	ldr	r3, [r7, #0]
 8000318:	4413      	add	r3, r2
 800031a:	4a04      	ldr	r2, [pc, #16]	; (800032c <_sbrk_r+0x50>)
 800031c:	6013      	str	r3, [r2, #0]
 800031e:	68bb      	ldr	r3, [r7, #8]
 8000320:	4618      	mov	r0, r3
 8000322:	3714      	adds	r7, #20
 8000324:	46bd      	mov	sp, r7
 8000326:	f85d 7b04 	ldr.w	r7, [sp], #4
 800032a:	4770      	bx	lr
 800032c:	200009cc 	andcs	r0, r0, ip, asr #19
 8000330:	2000860c 	andcs	r8, r0, ip, lsl #12

08000334 <_execve>:
 8000334:	b480      	push	{r7}
 8000336:	b085      	sub	sp, #20
 8000338:	af00      	add	r7, sp, #0
 800033a:	60f8      	str	r0, [r7, #12]
 800033c:	60b9      	str	r1, [r7, #8]
 800033e:	607a      	str	r2, [r7, #4]
 8000340:	4b05      	ldr	r3, [pc, #20]	; (8000358 <_execve+0x24>)
 8000342:	2286      	movs	r2, #134	; 0x86
 8000344:	601a      	str	r2, [r3, #0]
 8000346:	f04f 33ff 	mov.w	r3, #4294967295	; 0xffffffff
 800034a:	4618      	mov	r0, r3
 800034c:	3714      	adds	r7, #20
 800034e:	46bd      	mov	sp, r7
 8000350:	f85d 7b04 	ldr.w	r7, [sp], #4
 8000354:	4770      	bx	lr
 8000356:	bf00      	nop
 8000358:	200085e4 	andcs	r8, r0, r4, ror #11

0800035c <_fork>:
 800035c:	b480      	push	{r7}
 800035e:	af00      	add	r7, sp, #0
 8000360:	4b04      	ldr	r3, [pc, #16]	; (8000374 <_fork+0x18>)
 8000362:	2286      	movs	r2, #134	; 0x86
 8000364:	601a      	str	r2, [r3, #0]
 8000366:	f04f 33ff 	mov.w	r3, #4294967295	; 0xffffffff
 800036a:	4618      	mov	r0, r3
 800036c:	46bd      	mov	sp, r7
 800036e:	f85d 7b04 	ldr.w	r7, [sp], #4
 8000372:	4770      	bx	lr
 8000374:	200085e4 	andcs	r8, r0, r4, ror #11

08000378 <_getpid>:
 8000378:	b480      	push	{r7}
 800037a:	af00      	add	r7, sp, #0
 800037c:	2301      	movs	r3, #1
 800037e:	4618      	mov	r0, r3
 8000380:	46bd      	mov	sp, r7
 8000382:	f85d 7b04 	ldr.w	r7, [sp], #4
 8000386:	4770      	bx	lr

08000388 <_kill>:
 8000388:	b480      	push	{r7}
 800038a:	b083      	sub	sp, #12
 800038c:	af00      	add	r7, sp, #0
 800038e:	6078      	str	r0, [r7, #4]
 8000390:	6039      	str	r1, [r7, #0]
 8000392:	4b05      	ldr	r3, [pc, #20]	; (80003a8 <_kill+0x20>)
 8000394:	2286      	movs	r2, #134	; 0x86
 8000396:	601a      	str	r2, [r3, #0]
 8000398:	f04f 33ff 	mov.w	r3, #4294967295	; 0xffffffff
 800039c:	4618      	mov	r0, r3
 800039e:	370c      	adds	r7, #12
 80003a0:	46bd      	mov	sp, r7
 80003a2:	f85d 7b04 	ldr.w	r7, [sp], #4
 80003a6:	4770      	bx	lr
 80003a8:	200085e4 	andcs	r8, r0, r4, ror #11

080003ac <_wait>:
 80003ac:	b480      	push	{r7}
 80003ae:	b083      	sub	sp, #12
 80003b0:	af00      	add	r7, sp, #0
 80003b2:	6078      	str	r0, [r7, #4]
 80003b4:	4b05      	ldr	r3, [pc, #20]	; (80003cc <_wait+0x20>)
 80003b6:	2286      	movs	r2, #134	; 0x86
 80003b8:	601a      	str	r2, [r3, #0]
 80003ba:	f04f 33ff 	mov.w	r3, #4294967295	; 0xffffffff
 80003be:	4618      	mov	r0, r3
 80003c0:	370c      	adds	r7, #12
 80003c2:	46bd      	mov	sp, r7
 80003c4:	f85d 7b04 	ldr.w	r7, [sp], #4
 80003c8:	4770      	bx	lr
 80003ca:	bf00      	nop
 80003cc:	200085e4 	andcs	r8, r0, r4, ror #11

080003d0 <_exit>:
 80003d0:	b480      	push	{r7}
 80003d2:	b083      	sub	sp, #12
 80003d4:	af00      	add	r7, sp, #0
 80003d6:	6078      	str	r0, [r7, #4]
 80003d8:	4b04      	ldr	r3, [pc, #16]	; (80003ec <_exit+0x1c>)
 80003da:	2286      	movs	r2, #134	; 0x86
 80003dc:	601a      	str	r2, [r3, #0]
 80003de:	bf00      	nop
 80003e0:	370c      	adds	r7, #12
 80003e2:	46bd      	mov	sp, r7
 80003e4:	f85d 7b04 	ldr.w	r7, [sp], #4
 80003e8:	4770      	bx	lr
 80003ea:	bf00      	nop
 80003ec:	200085e4 	andcs	r8, r0, r4, ror #11

080003f0 <_link>:
 80003f0:	b480      	push	{r7}
 80003f2:	b083      	sub	sp, #12
 80003f4:	af00      	add	r7, sp, #0
 80003f6:	6078      	str	r0, [r7, #4]
 80003f8:	6039      	str	r1, [r7, #0]
 80003fa:	4b05      	ldr	r3, [pc, #20]	; (8000410 <_link+0x20>)
 80003fc:	221f      	movs	r2, #31
 80003fe:	601a      	str	r2, [r3, #0]
 8000400:	f04f 33ff 	mov.w	r3, #4294967295	; 0xffffffff
 8000404:	4618      	mov	r0, r3
 8000406:	370c      	adds	r7, #12
 8000408:	46bd      	mov	sp, r7
 800040a:	f85d 7b04 	ldr.w	r7, [sp], #4
 800040e:	4770      	bx	lr
 8000410:	200085e4 	andcs	r8, r0, r4, ror #11

08000414 <_unlink>:
 8000414:	b480      	push	{r7}
 8000416:	b083      	sub	sp, #12
 8000418:	af00      	add	r7, sp, #0
 800041a:	6078      	str	r0, [r7, #4]
 800041c:	4b05      	ldr	r3, [pc, #20]	; (8000434 <_unlink+0x20>)
 800041e:	221f      	movs	r2, #31
 8000420:	601a      	str	r2, [r3, #0]
 8000422:	f04f 33ff 	mov.w	r3, #4294967295	; 0xffffffff
 8000426:	4618      	mov	r0, r3
 8000428:	370c      	adds	r7, #12
 800042a:	46bd      	mov	sp, r7
 800042c:	f85d 7b04 	ldr.w	r7, [sp], #4
 8000430:	4770      	bx	lr
 8000432:	bf00      	nop
 8000434:	200085e4 	andcs	r8, r0, r4, ror #11

08000438 <vApplicationTickHook>:
 8000438:	b580      	push	{r7, lr}
 800043a:	b082      	sub	sp, #8
 800043c:	af00      	add	r7, sp, #0
 800043e:	2300      	movs	r3, #0
 8000440:	607b      	str	r3, [r7, #4]
 8000442:	2300      	movs	r3, #0
 8000444:	607b      	str	r3, [r7, #4]
 8000446:	e004      	b.n	8000452 <vApplicationTickHook+0x1a>
 8000448:	f010 f91c 	bl	8010684 <HAL_IncTick>
 800044c:	687b      	ldr	r3, [r7, #4]
 800044e:	3301      	adds	r3, #1
 8000450:	607b      	str	r3, [r7, #4]
 8000452:	687b      	ldr	r3, [r7, #4]
 8000454:	2b00      	cmp	r3, #0
 8000456:	d0f7      	beq.n	8000448 <vApplicationTickHook+0x10>
 8000458:	bf00      	nop
 800045a:	3708      	adds	r7, #8
 800045c:	46bd      	mov	sp, r7
 800045e:	bd80      	pop	{r7, pc}

08000460 <main>:
 8000460:	b580      	push	{r7, lr}
 8000462:	b084      	sub	sp, #16
 8000464:	af04      	add	r7, sp, #16
 8000466:	f010 f899 	bl	801059c <HAL_Init>
 800046a:	4825      	ldr	r0, [pc, #148]	; (8000500 <main+0xa0>)
 800046c:	f012 fb04 	bl	8012a78 <puts>
 8000470:	2000      	movs	r0, #0
 8000472:	f010 fd2b 	bl	8010ecc <BSP_LED_Init>
 8000476:	2001      	movs	r0, #1
 8000478:	f010 fd28 	bl	8010ecc <BSP_LED_Init>
 800047c:	4b21      	ldr	r3, [pc, #132]	; (8000504 <main+0xa4>)
 800047e:	4a22      	ldr	r2, [pc, #136]	; (8000508 <main+0xa8>)
 8000480:	601a      	str	r2, [r3, #0]
 8000482:	4b20      	ldr	r3, [pc, #128]	; (8000504 <main+0xa4>)
 8000484:	f44f 32e1 	mov.w	r2, #115200	; 0x1c200
 8000488:	605a      	str	r2, [r3, #4]
 800048a:	4b1e      	ldr	r3, [pc, #120]	; (8000504 <main+0xa4>)
 800048c:	2200      	movs	r2, #0
 800048e:	609a      	str	r2, [r3, #8]
 8000490:	4b1c      	ldr	r3, [pc, #112]	; (8000504 <main+0xa4>)
 8000492:	2200      	movs	r2, #0
 8000494:	60da      	str	r2, [r3, #12]
 8000496:	4b1b      	ldr	r3, [pc, #108]	; (8000504 <main+0xa4>)
 8000498:	2200      	movs	r2, #0
 800049a:	611a      	str	r2, [r3, #16]
 800049c:	4b19      	ldr	r3, [pc, #100]	; (8000504 <main+0xa4>)
 800049e:	2200      	movs	r2, #0
 80004a0:	619a      	str	r2, [r3, #24]
 80004a2:	4b18      	ldr	r3, [pc, #96]	; (8000504 <main+0xa4>)
 80004a4:	220c      	movs	r2, #12
 80004a6:	615a      	str	r2, [r3, #20]
 80004a8:	4b16      	ldr	r3, [pc, #88]	; (8000504 <main+0xa4>)
 80004aa:	2200      	movs	r2, #0
 80004ac:	61da      	str	r2, [r3, #28]
 80004ae:	4815      	ldr	r0, [pc, #84]	; (8000504 <main+0xa4>)
 80004b0:	f007 f9d2 	bl	8007858 <HAL_UART_Init>
 80004b4:	4603      	mov	r3, r0
 80004b6:	2b00      	cmp	r3, #0
 80004b8:	d001      	beq.n	80004be <main+0x5e>
 80004ba:	f000 f8de 	bl	800067a <Error_Handler>
 80004be:	2300      	movs	r3, #0
 80004c0:	9303      	str	r3, [sp, #12]
 80004c2:	2300      	movs	r3, #0
 80004c4:	9302      	str	r3, [sp, #8]
 80004c6:	4b11      	ldr	r3, [pc, #68]	; (800050c <main+0xac>)
 80004c8:	9301      	str	r3, [sp, #4]
 80004ca:	2302      	movs	r3, #2
 80004cc:	9300      	str	r3, [sp, #0]
 80004ce:	2300      	movs	r3, #0
 80004d0:	f44f 7200 	mov.w	r2, #512	; 0x200
 80004d4:	490e      	ldr	r1, [pc, #56]	; (8000510 <main+0xb0>)
 80004d6:	480f      	ldr	r0, [pc, #60]	; (8000514 <main+0xb4>)
 80004d8:	f001 f978 	bl	80017cc <xTaskGenericCreate>
 80004dc:	2300      	movs	r3, #0
 80004de:	9303      	str	r3, [sp, #12]
 80004e0:	2300      	movs	r3, #0
 80004e2:	9302      	str	r3, [sp, #8]
 80004e4:	4b0c      	ldr	r3, [pc, #48]	; (8000518 <main+0xb8>)
 80004e6:	9301      	str	r3, [sp, #4]
 80004e8:	2302      	movs	r3, #2
 80004ea:	9300      	str	r3, [sp, #0]
 80004ec:	2300      	movs	r3, #0
 80004ee:	f44f 7200 	mov.w	r2, #512	; 0x200
 80004f2:	490a      	ldr	r1, [pc, #40]	; (800051c <main+0xbc>)
 80004f4:	480a      	ldr	r0, [pc, #40]	; (8000520 <main+0xc0>)
 80004f6:	f001 f969 	bl	80017cc <xTaskGenericCreate>
 80004fa:	f001 fe1f 	bl	800213c <vTaskStartScheduler>
 80004fe:	e7fe      	b.n	80004fe <main+0x9e>
 8000500:	08016cf8 	stmdaeq	r1, {r3, r4, r5, r6, r7, sl, fp, sp, lr}
 8000504:	20008498 	mulcs	r0, r8, r4
 8000508:	40011000 	andmi	r1, r1, r0
 800050c:	200009d0 	ldrdcs	r0, [r0], -r0	; <UNPREDICTABLE>
 8000510:	08016d08 	stmdaeq	r1, {r3, r8, sl, fp, sp, lr}
 8000514:	08000525 	stmdaeq	r0, {r0, r2, r5, r8, sl}
 8000518:	200009d4 	ldrdcs	r0, [r0], -r4
 800051c:	08016d14 	stmdaeq	r1, {r2, r4, r8, sl, fp, sp, lr}
 8000520:	08000545 	stmdaeq	r0, {r0, r2, r6, r8, sl}

08000524 <vTaskLED3>:
 8000524:	b580      	push	{r7, lr}
 8000526:	b082      	sub	sp, #8
 8000528:	af00      	add	r7, sp, #0
 800052a:	6078      	str	r0, [r7, #4]
 800052c:	2000      	movs	r0, #0
 800052e:	f010 fd55 	bl	8010fdc <BSP_LED_Toggle>
 8000532:	4803      	ldr	r0, [pc, #12]	; (8000540 <vTaskLED3+0x1c>)
 8000534:	f012 faa0 	bl	8012a78 <puts>
 8000538:	20fa      	movs	r0, #250	; 0xfa
 800053a:	f001 fb2b 	bl	8001b94 <vTaskDelay>
 800053e:	e7f5      	b.n	800052c <vTaskLED3+0x8>
 8000540:	08016d20 	stmdaeq	r1, {r5, r8, sl, fp, sp, lr}

08000544 <vTaskLED4>:
 8000544:	b580      	push	{r7, lr}
 8000546:	b082      	sub	sp, #8
 8000548:	af00      	add	r7, sp, #0
 800054a:	6078      	str	r0, [r7, #4]
 800054c:	2001      	movs	r0, #1
 800054e:	f010 fd45 	bl	8010fdc <BSP_LED_Toggle>
 8000552:	4803      	ldr	r0, [pc, #12]	; (8000560 <vTaskLED4+0x1c>)
 8000554:	f012 fa90 	bl	8012a78 <puts>
 8000558:	2064      	movs	r0, #100	; 0x64
 800055a:	f001 fb1b 	bl	8001b94 <vTaskDelay>
 800055e:	e7f5      	b.n	800054c <vTaskLED4+0x8>
 8000560:	08016d34 	stmdaeq	r1, {r2, r4, r5, r8, sl, fp, sp, lr}

08000564 <SystemClock_Config>:
 8000564:	b580      	push	{r7, lr}
 8000566:	b094      	sub	sp, #80	; 0x50
 8000568:	af00      	add	r7, sp, #0
 800056a:	2300      	movs	r3, #0
 800056c:	60bb      	str	r3, [r7, #8]
 800056e:	4b2a      	ldr	r3, [pc, #168]	; (8000618 <SystemClock_Config+0xb4>)
 8000570:	6c1b      	ldr	r3, [r3, #64]	; 0x40
 8000572:	4a29      	ldr	r2, [pc, #164]	; (8000618 <SystemClock_Config+0xb4>)
 8000574:	f043 5380 	orr.w	r3, r3, #268435456	; 0x10000000
 8000578:	6413      	str	r3, [r2, #64]	; 0x40
 800057a:	4b27      	ldr	r3, [pc, #156]	; (8000618 <SystemClock_Config+0xb4>)
 800057c:	6c1b      	ldr	r3, [r3, #64]	; 0x40
 800057e:	f003 5380 	and.w	r3, r3, #268435456	; 0x10000000
 8000582:	60bb      	str	r3, [r7, #8]
 8000584:	68bb      	ldr	r3, [r7, #8]
 8000586:	2300      	movs	r3, #0
 8000588:	607b      	str	r3, [r7, #4]
 800058a:	4b24      	ldr	r3, [pc, #144]	; (800061c <SystemClock_Config+0xb8>)
 800058c:	681b      	ldr	r3, [r3, #0]
 800058e:	4a23      	ldr	r2, [pc, #140]	; (800061c <SystemClock_Config+0xb8>)
 8000590:	f443 4340 	orr.w	r3, r3, #49152	; 0xc000
 8000594:	6013      	str	r3, [r2, #0]
 8000596:	4b21      	ldr	r3, [pc, #132]	; (800061c <SystemClock_Config+0xb8>)
 8000598:	681b      	ldr	r3, [r3, #0]
 800059a:	f403 4340 	and.w	r3, r3, #49152	; 0xc000
 800059e:	607b      	str	r3, [r7, #4]
 80005a0:	687b      	ldr	r3, [r7, #4]
 80005a2:	2301      	movs	r3, #1
 80005a4:	60fb      	str	r3, [r7, #12]
 80005a6:	f44f 3380 	mov.w	r3, #65536	; 0x10000
 80005aa:	613b      	str	r3, [r7, #16]
 80005ac:	2302      	movs	r3, #2
 80005ae:	627b      	str	r3, [r7, #36]	; 0x24
 80005b0:	f44f 0380 	mov.w	r3, #4194304	; 0x400000
 80005b4:	62bb      	str	r3, [r7, #40]	; 0x28
 80005b6:	2308      	movs	r3, #8
 80005b8:	62fb      	str	r3, [r7, #44]	; 0x2c
 80005ba:	f44f 73b4 	mov.w	r3, #360	; 0x168
 80005be:	633b      	str	r3, [r7, #48]	; 0x30
 80005c0:	2302      	movs	r3, #2
 80005c2:	637b      	str	r3, [r7, #52]	; 0x34
 80005c4:	2307      	movs	r3, #7
 80005c6:	63bb      	str	r3, [r7, #56]	; 0x38
 80005c8:	f107 030c 	add.w	r3, r7, #12
 80005cc:	4618      	mov	r0, r3
 80005ce:	f00e fd7b 	bl	800f0c8 <HAL_RCC_OscConfig>
 80005d2:	4603      	mov	r3, r0
 80005d4:	2b00      	cmp	r3, #0
 80005d6:	d001      	beq.n	80005dc <SystemClock_Config+0x78>
 80005d8:	f000 f84f 	bl	800067a <Error_Handler>
 80005dc:	f00f fbd8 	bl	800fd90 <HAL_PWREx_EnableOverDrive>
 80005e0:	230f      	movs	r3, #15
 80005e2:	63fb      	str	r3, [r7, #60]	; 0x3c
 80005e4:	2302      	movs	r3, #2
 80005e6:	643b      	str	r3, [r7, #64]	; 0x40
 80005e8:	2300      	movs	r3, #0
 80005ea:	647b      	str	r3, [r7, #68]	; 0x44
 80005ec:	f44f 53a0 	mov.w	r3, #5120	; 0x1400
 80005f0:	64bb      	str	r3, [r7, #72]	; 0x48
 80005f2:	f44f 5380 	mov.w	r3, #4096	; 0x1000
 80005f6:	64fb      	str	r3, [r7, #76]	; 0x4c
 80005f8:	f107 033c 	add.w	r3, r7, #60	; 0x3c
 80005fc:	2105      	movs	r1, #5
 80005fe:	4618      	mov	r0, r3
 8000600:	f00e ff8a 	bl	800f518 <HAL_RCC_ClockConfig>
 8000604:	4603      	mov	r3, r0
 8000606:	2b00      	cmp	r3, #0
 8000608:	d001      	beq.n	800060e <SystemClock_Config+0xaa>
 800060a:	f000 f836 	bl	800067a <Error_Handler>
 800060e:	bf00      	nop
 8000610:	3750      	adds	r7, #80	; 0x50
 8000612:	46bd      	mov	sp, r7
 8000614:	bd80      	pop	{r7, pc}
 8000616:	bf00      	nop
 8000618:	40023800 	andmi	r3, r2, r0, lsl #16
 800061c:	40007000 	andmi	r7, r0, r0

08000620 <HAL_UART_ErrorCallback>:
 8000620:	b580      	push	{r7, lr}
 8000622:	b082      	sub	sp, #8
 8000624:	af00      	add	r7, sp, #0
 8000626:	6078      	str	r0, [r7, #4]
 8000628:	2001      	movs	r0, #1
 800062a:	f010 fca3 	bl	8010f74 <BSP_LED_On>
 800062e:	bf00      	nop
 8000630:	3708      	adds	r7, #8
 8000632:	46bd      	mov	sp, r7
 8000634:	bd80      	pop	{r7, pc}

08000636 <Buffercmp>:
 8000636:	b480      	push	{r7}
 8000638:	b085      	sub	sp, #20
 800063a:	af00      	add	r7, sp, #0
 800063c:	60f8      	str	r0, [r7, #12]
 800063e:	60b9      	str	r1, [r7, #8]
 8000640:	4613      	mov	r3, r2
 8000642:	80fb      	strh	r3, [r7, #6]
 8000644:	e00d      	b.n	8000662 <Buffercmp+0x2c>
 8000646:	68fb      	ldr	r3, [r7, #12]
 8000648:	781a      	ldrb	r2, [r3, #0]
 800064a:	68bb      	ldr	r3, [r7, #8]
 800064c:	781b      	ldrb	r3, [r3, #0]
 800064e:	429a      	cmp	r2, r3
 8000650:	d001      	beq.n	8000656 <Buffercmp+0x20>
 8000652:	88fb      	ldrh	r3, [r7, #6]
 8000654:	e00b      	b.n	800066e <Buffercmp+0x38>
 8000656:	68fb      	ldr	r3, [r7, #12]
 8000658:	3301      	adds	r3, #1
 800065a:	60fb      	str	r3, [r7, #12]
 800065c:	68bb      	ldr	r3, [r7, #8]
 800065e:	3301      	adds	r3, #1
 8000660:	60bb      	str	r3, [r7, #8]
 8000662:	88fb      	ldrh	r3, [r7, #6]
 8000664:	1e5a      	subs	r2, r3, #1
 8000666:	80fa      	strh	r2, [r7, #6]
 8000668:	2b00      	cmp	r3, #0
 800066a:	d1ec      	bne.n	8000646 <Buffercmp+0x10>
 800066c:	2300      	movs	r3, #0
 800066e:	4618      	mov	r0, r3
 8000670:	3714      	adds	r7, #20
 8000672:	46bd      	mov	sp, r7
 8000674:	f85d 7b04 	ldr.w	r7, [sp], #4
 8000678:	4770      	bx	lr

0800067a <Error_Handler>:
 800067a:	b580      	push	{r7, lr}
 800067c:	af00      	add	r7, sp, #0
 800067e:	2001      	movs	r0, #1
 8000680:	f010 fc78 	bl	8010f74 <BSP_LED_On>
 8000684:	e7fe      	b.n	8000684 <Error_Handler+0xa>
 8000686:	bf00      	nop

08000688 <vListInitialise>:
 8000688:	b480      	push	{r7}
 800068a:	b083      	sub	sp, #12
 800068c:	af00      	add	r7, sp, #0
 800068e:	6078      	str	r0, [r7, #4]
 8000690:	687b      	ldr	r3, [r7, #4]
 8000692:	f103 0208 	add.w	r2, r3, #8
 8000696:	687b      	ldr	r3, [r7, #4]
 8000698:	605a      	str	r2, [r3, #4]
 800069a:	687b      	ldr	r3, [r7, #4]
 800069c:	f04f 32ff 	mov.w	r2, #4294967295	; 0xffffffff
 80006a0:	609a      	str	r2, [r3, #8]
 80006a2:	687b      	ldr	r3, [r7, #4]
 80006a4:	f103 0208 	add.w	r2, r3, #8
 80006a8:	687b      	ldr	r3, [r7, #4]
 80006aa:	60da      	str	r2, [r3, #12]
 80006ac:	687b      	ldr	r3, [r7, #4]
 80006ae:	f103 0208 	add.w	r2, r3, #8
 80006b2:	687b      	ldr	r3, [r7, #4]
 80006b4:	611a      	str	r2, [r3, #16]
 80006b6:	687b      	ldr	r3, [r7, #4]
 80006b8:	2200      	movs	r2, #0
 80006ba:	601a      	str	r2, [r3, #0]
 80006bc:	bf00      	nop
 80006be:	370c      	adds	r7, #12
 80006c0:	46bd      	mov	sp, r7
 80006c2:	f85d 7b04 	ldr.w	r7, [sp], #4
 80006c6:	4770      	bx	lr

080006c8 <vListInitialiseItem>:
 80006c8:	b480      	push	{r7}
 80006ca:	b083      	sub	sp, #12
 80006cc:	af00      	add	r7, sp, #0
 80006ce:	6078      	str	r0, [r7, #4]
 80006d0:	687b      	ldr	r3, [r7, #4]
 80006d2:	2200      	movs	r2, #0
 80006d4:	611a      	str	r2, [r3, #16]
 80006d6:	bf00      	nop
 80006d8:	370c      	adds	r7, #12
 80006da:	46bd      	mov	sp, r7
 80006dc:	f85d 7b04 	ldr.w	r7, [sp], #4
 80006e0:	4770      	bx	lr

080006e2 <vListInsertEnd>:
 80006e2:	b480      	push	{r7}
 80006e4:	b085      	sub	sp, #20
 80006e6:	af00      	add	r7, sp, #0
 80006e8:	6078      	str	r0, [r7, #4]
 80006ea:	6039      	str	r1, [r7, #0]
 80006ec:	687b      	ldr	r3, [r7, #4]
 80006ee:	685b      	ldr	r3, [r3, #4]
 80006f0:	60fb      	str	r3, [r7, #12]
 80006f2:	683b      	ldr	r3, [r7, #0]
 80006f4:	68fa      	ldr	r2, [r7, #12]
 80006f6:	605a      	str	r2, [r3, #4]
 80006f8:	68fb      	ldr	r3, [r7, #12]
 80006fa:	689a      	ldr	r2, [r3, #8]
 80006fc:	683b      	ldr	r3, [r7, #0]
 80006fe:	609a      	str	r2, [r3, #8]
 8000700:	68fb      	ldr	r3, [r7, #12]
 8000702:	689b      	ldr	r3, [r3, #8]
 8000704:	683a      	ldr	r2, [r7, #0]
 8000706:	605a      	str	r2, [r3, #4]
 8000708:	68fb      	ldr	r3, [r7, #12]
 800070a:	683a      	ldr	r2, [r7, #0]
 800070c:	609a      	str	r2, [r3, #8]
 800070e:	683b      	ldr	r3, [r7, #0]
 8000710:	687a      	ldr	r2, [r7, #4]
 8000712:	611a      	str	r2, [r3, #16]
 8000714:	687b      	ldr	r3, [r7, #4]
 8000716:	681b      	ldr	r3, [r3, #0]
 8000718:	1c5a      	adds	r2, r3, #1
 800071a:	687b      	ldr	r3, [r7, #4]
 800071c:	601a      	str	r2, [r3, #0]
 800071e:	bf00      	nop
 8000720:	3714      	adds	r7, #20
 8000722:	46bd      	mov	sp, r7
 8000724:	f85d 7b04 	ldr.w	r7, [sp], #4
 8000728:	4770      	bx	lr

0800072a <vListInsert>:
 800072a:	b480      	push	{r7}
 800072c:	b085      	sub	sp, #20
 800072e:	af00      	add	r7, sp, #0
 8000730:	6078      	str	r0, [r7, #4]
 8000732:	6039      	str	r1, [r7, #0]
 8000734:	683b      	ldr	r3, [r7, #0]
 8000736:	681b      	ldr	r3, [r3, #0]
 8000738:	60bb      	str	r3, [r7, #8]
 800073a:	68bb      	ldr	r3, [r7, #8]
 800073c:	f1b3 3fff 	cmp.w	r3, #4294967295	; 0xffffffff
 8000740:	d103      	bne.n	800074a <vListInsert+0x20>
 8000742:	687b      	ldr	r3, [r7, #4]
 8000744:	691b      	ldr	r3, [r3, #16]
 8000746:	60fb      	str	r3, [r7, #12]
 8000748:	e00c      	b.n	8000764 <vListInsert+0x3a>
 800074a:	687b      	ldr	r3, [r7, #4]
 800074c:	3308      	adds	r3, #8
 800074e:	60fb      	str	r3, [r7, #12]
 8000750:	e002      	b.n	8000758 <vListInsert+0x2e>
 8000752:	68fb      	ldr	r3, [r7, #12]
 8000754:	685b      	ldr	r3, [r3, #4]
 8000756:	60fb      	str	r3, [r7, #12]
 8000758:	68fb      	ldr	r3, [r7, #12]
 800075a:	685b      	ldr	r3, [r3, #4]
 800075c:	681b      	ldr	r3, [r3, #0]
 800075e:	68ba      	ldr	r2, [r7, #8]
 8000760:	429a      	cmp	r2, r3
 8000762:	d2f6      	bcs.n	8000752 <vListInsert+0x28>
 8000764:	68fb      	ldr	r3, [r7, #12]
 8000766:	685a      	ldr	r2, [r3, #4]
 8000768:	683b      	ldr	r3, [r7, #0]
 800076a:	605a      	str	r2, [r3, #4]
 800076c:	683b      	ldr	r3, [r7, #0]
 800076e:	685b      	ldr	r3, [r3, #4]
 8000770:	683a      	ldr	r2, [r7, #0]
 8000772:	609a      	str	r2, [r3, #8]
 8000774:	683b      	ldr	r3, [r7, #0]
 8000776:	68fa      	ldr	r2, [r7, #12]
 8000778:	609a      	str	r2, [r3, #8]
 800077a:	68fb      	ldr	r3, [r7, #12]
 800077c:	683a      	ldr	r2, [r7, #0]
 800077e:	605a      	str	r2, [r3, #4]
 8000780:	683b      	ldr	r3, [r7, #0]
 8000782:	687a      	ldr	r2, [r7, #4]
 8000784:	611a      	str	r2, [r3, #16]
 8000786:	687b      	ldr	r3, [r7, #4]
 8000788:	681b      	ldr	r3, [r3, #0]
 800078a:	1c5a      	adds	r2, r3, #1
 800078c:	687b      	ldr	r3, [r7, #4]
 800078e:	601a      	str	r2, [r3, #0]
 8000790:	bf00      	nop
 8000792:	3714      	adds	r7, #20
 8000794:	46bd      	mov	sp, r7
 8000796:	f85d 7b04 	ldr.w	r7, [sp], #4
 800079a:	4770      	bx	lr

0800079c <uxListRemove>:
 800079c:	b480      	push	{r7}
 800079e:	b085      	sub	sp, #20
 80007a0:	af00      	add	r7, sp, #0
 80007a2:	6078      	str	r0, [r7, #4]
 80007a4:	687b      	ldr	r3, [r7, #4]
 80007a6:	691b      	ldr	r3, [r3, #16]
 80007a8:	60fb      	str	r3, [r7, #12]
 80007aa:	687b      	ldr	r3, [r7, #4]
 80007ac:	685b      	ldr	r3, [r3, #4]
 80007ae:	687a      	ldr	r2, [r7, #4]
 80007b0:	6892      	ldr	r2, [r2, #8]
 80007b2:	609a      	str	r2, [r3, #8]
 80007b4:	687b      	ldr	r3, [r7, #4]
 80007b6:	689b      	ldr	r3, [r3, #8]
 80007b8:	687a      	ldr	r2, [r7, #4]
 80007ba:	6852      	ldr	r2, [r2, #4]
 80007bc:	605a      	str	r2, [r3, #4]
 80007be:	68fb      	ldr	r3, [r7, #12]
 80007c0:	685b      	ldr	r3, [r3, #4]
 80007c2:	687a      	ldr	r2, [r7, #4]
 80007c4:	429a      	cmp	r2, r3
 80007c6:	d103      	bne.n	80007d0 <uxListRemove+0x34>
 80007c8:	687b      	ldr	r3, [r7, #4]
 80007ca:	689a      	ldr	r2, [r3, #8]
 80007cc:	68fb      	ldr	r3, [r7, #12]
 80007ce:	605a      	str	r2, [r3, #4]
 80007d0:	687b      	ldr	r3, [r7, #4]
 80007d2:	2200      	movs	r2, #0
 80007d4:	611a      	str	r2, [r3, #16]
 80007d6:	68fb      	ldr	r3, [r7, #12]
 80007d8:	681b      	ldr	r3, [r3, #0]
 80007da:	1e5a      	subs	r2, r3, #1
 80007dc:	68fb      	ldr	r3, [r7, #12]
 80007de:	601a      	str	r2, [r3, #0]
 80007e0:	68fb      	ldr	r3, [r7, #12]
 80007e2:	681b      	ldr	r3, [r3, #0]
 80007e4:	4618      	mov	r0, r3
 80007e6:	3714      	adds	r7, #20
 80007e8:	46bd      	mov	sp, r7
 80007ea:	f85d 7b04 	ldr.w	r7, [sp], #4
 80007ee:	4770      	bx	lr

080007f0 <xQueueGenericReset>:
 80007f0:	b580      	push	{r7, lr}
 80007f2:	b084      	sub	sp, #16
 80007f4:	af00      	add	r7, sp, #0
 80007f6:	6078      	str	r0, [r7, #4]
 80007f8:	6039      	str	r1, [r7, #0]
 80007fa:	687b      	ldr	r3, [r7, #4]
 80007fc:	60fb      	str	r3, [r7, #12]
 80007fe:	68fb      	ldr	r3, [r7, #12]
 8000800:	2b00      	cmp	r3, #0
 8000802:	d109      	bne.n	8000818 <xQueueGenericReset+0x28>
 8000804:	f04f 0310 	mov.w	r3, #16
 8000808:	f383 8811 	msr	BASEPRI, r3
 800080c:	f3bf 8f6f 	isb	sy
 8000810:	f3bf 8f4f 	dsb	sy
 8000814:	60bb      	str	r3, [r7, #8]
 8000816:	e7fe      	b.n	8000816 <xQueueGenericReset+0x26>
 8000818:	f003 fdd4 	bl	80043c4 <vPortEnterCritical>
 800081c:	68fb      	ldr	r3, [r7, #12]
 800081e:	681a      	ldr	r2, [r3, #0]
 8000820:	68fb      	ldr	r3, [r7, #12]
 8000822:	6bdb      	ldr	r3, [r3, #60]	; 0x3c
 8000824:	68f9      	ldr	r1, [r7, #12]
 8000826:	6c09      	ldr	r1, [r1, #64]	; 0x40
 8000828:	fb01 f303 	mul.w	r3, r1, r3
 800082c:	441a      	add	r2, r3
 800082e:	68fb      	ldr	r3, [r7, #12]
 8000830:	605a      	str	r2, [r3, #4]
 8000832:	68fb      	ldr	r3, [r7, #12]
 8000834:	2200      	movs	r2, #0
 8000836:	639a      	str	r2, [r3, #56]	; 0x38
 8000838:	68fb      	ldr	r3, [r7, #12]
 800083a:	681a      	ldr	r2, [r3, #0]
 800083c:	68fb      	ldr	r3, [r7, #12]
 800083e:	609a      	str	r2, [r3, #8]
 8000840:	68fb      	ldr	r3, [r7, #12]
 8000842:	681a      	ldr	r2, [r3, #0]
 8000844:	68fb      	ldr	r3, [r7, #12]
 8000846:	6bdb      	ldr	r3, [r3, #60]	; 0x3c
 8000848:	3b01      	subs	r3, #1
 800084a:	68f9      	ldr	r1, [r7, #12]
 800084c:	6c09      	ldr	r1, [r1, #64]	; 0x40
 800084e:	fb01 f303 	mul.w	r3, r1, r3
 8000852:	441a      	add	r2, r3
 8000854:	68fb      	ldr	r3, [r7, #12]
 8000856:	60da      	str	r2, [r3, #12]
 8000858:	68fb      	ldr	r3, [r7, #12]
 800085a:	f04f 32ff 	mov.w	r2, #4294967295	; 0xffffffff
 800085e:	645a      	str	r2, [r3, #68]	; 0x44
 8000860:	68fb      	ldr	r3, [r7, #12]
 8000862:	f04f 32ff 	mov.w	r2, #4294967295	; 0xffffffff
 8000866:	649a      	str	r2, [r3, #72]	; 0x48
 8000868:	683b      	ldr	r3, [r7, #0]
 800086a:	2b00      	cmp	r3, #0
 800086c:	d114      	bne.n	8000898 <xQueueGenericReset+0xa8>
 800086e:	68fb      	ldr	r3, [r7, #12]
 8000870:	691b      	ldr	r3, [r3, #16]
 8000872:	2b00      	cmp	r3, #0
 8000874:	d01a      	beq.n	80008ac <xQueueGenericReset+0xbc>
 8000876:	68fb      	ldr	r3, [r7, #12]
 8000878:	3310      	adds	r3, #16
 800087a:	4618      	mov	r0, r3
 800087c:	f002 f852 	bl	8002924 <xTaskRemoveFromEventList>
 8000880:	4603      	mov	r3, r0
 8000882:	2b01      	cmp	r3, #1
 8000884:	d112      	bne.n	80008ac <xQueueGenericReset+0xbc>
 8000886:	4b0d      	ldr	r3, [pc, #52]	; (80008bc <xQueueGenericReset+0xcc>)
 8000888:	f04f 5280 	mov.w	r2, #268435456	; 0x10000000
 800088c:	601a      	str	r2, [r3, #0]
 800088e:	f3bf 8f4f 	dsb	sy
 8000892:	f3bf 8f6f 	isb	sy
 8000896:	e009      	b.n	80008ac <xQueueGenericReset+0xbc>
 8000898:	68fb      	ldr	r3, [r7, #12]
 800089a:	3310      	adds	r3, #16
 800089c:	4618      	mov	r0, r3
 800089e:	f7ff fef3 	bl	8000688 <vListInitialise>
 80008a2:	68fb      	ldr	r3, [r7, #12]
 80008a4:	3324      	adds	r3, #36	; 0x24
 80008a6:	4618      	mov	r0, r3
 80008a8:	f7ff feee 	bl	8000688 <vListInitialise>
 80008ac:	f003 fdb8 	bl	8004420 <vPortExitCritical>
 80008b0:	2301      	movs	r3, #1
 80008b2:	4618      	mov	r0, r3
 80008b4:	3710      	adds	r7, #16
 80008b6:	46bd      	mov	sp, r7
 80008b8:	bd80      	pop	{r7, pc}
 80008ba:	bf00      	nop
 80008bc:	e000ed04 	and	lr, r0, r4, lsl #26

080008c0 <xQueueGenericCreate>:
 80008c0:	b580      	push	{r7, lr}
 80008c2:	b08a      	sub	sp, #40	; 0x28
 80008c4:	af00      	add	r7, sp, #0
 80008c6:	60f8      	str	r0, [r7, #12]
 80008c8:	60b9      	str	r1, [r7, #8]
 80008ca:	4613      	mov	r3, r2
 80008cc:	71fb      	strb	r3, [r7, #7]
 80008ce:	2300      	movs	r3, #0
 80008d0:	623b      	str	r3, [r7, #32]
 80008d2:	68fb      	ldr	r3, [r7, #12]
 80008d4:	2b00      	cmp	r3, #0
 80008d6:	d109      	bne.n	80008ec <xQueueGenericCreate+0x2c>
 80008d8:	f04f 0310 	mov.w	r3, #16
 80008dc:	f383 8811 	msr	BASEPRI, r3
 80008e0:	f3bf 8f6f 	isb	sy
 80008e4:	f3bf 8f4f 	dsb	sy
 80008e8:	61bb      	str	r3, [r7, #24]
 80008ea:	e7fe      	b.n	80008ea <xQueueGenericCreate+0x2a>
 80008ec:	68bb      	ldr	r3, [r7, #8]
 80008ee:	2b00      	cmp	r3, #0
 80008f0:	d102      	bne.n	80008f8 <xQueueGenericCreate+0x38>
 80008f2:	2300      	movs	r3, #0
 80008f4:	627b      	str	r3, [r7, #36]	; 0x24
 80008f6:	e005      	b.n	8000904 <xQueueGenericCreate+0x44>
 80008f8:	68fb      	ldr	r3, [r7, #12]
 80008fa:	68ba      	ldr	r2, [r7, #8]
 80008fc:	fb02 f303 	mul.w	r3, r2, r3
 8000900:	3301      	adds	r3, #1
 8000902:	627b      	str	r3, [r7, #36]	; 0x24
 8000904:	6a7b      	ldr	r3, [r7, #36]	; 0x24
 8000906:	3354      	adds	r3, #84	; 0x54
 8000908:	4618      	mov	r0, r3
 800090a:	f003 fe6b 	bl	80045e4 <pvPortMalloc>
 800090e:	61f8      	str	r0, [r7, #28]
 8000910:	69fb      	ldr	r3, [r7, #28]
 8000912:	2b00      	cmp	r3, #0
 8000914:	d01b      	beq.n	800094e <xQueueGenericCreate+0x8e>
 8000916:	68bb      	ldr	r3, [r7, #8]
 8000918:	2b00      	cmp	r3, #0
 800091a:	d103      	bne.n	8000924 <xQueueGenericCreate+0x64>
 800091c:	69fb      	ldr	r3, [r7, #28]
 800091e:	69fa      	ldr	r2, [r7, #28]
 8000920:	601a      	str	r2, [r3, #0]
 8000922:	e004      	b.n	800092e <xQueueGenericCreate+0x6e>
 8000924:	69fb      	ldr	r3, [r7, #28]
 8000926:	f103 0254 	add.w	r2, r3, #84	; 0x54
 800092a:	69fb      	ldr	r3, [r7, #28]
 800092c:	601a      	str	r2, [r3, #0]
 800092e:	69fb      	ldr	r3, [r7, #28]
 8000930:	68fa      	ldr	r2, [r7, #12]
 8000932:	63da      	str	r2, [r3, #60]	; 0x3c
 8000934:	69fb      	ldr	r3, [r7, #28]
 8000936:	68ba      	ldr	r2, [r7, #8]
 8000938:	641a      	str	r2, [r3, #64]	; 0x40
 800093a:	2101      	movs	r1, #1
 800093c:	69f8      	ldr	r0, [r7, #28]
 800093e:	f7ff ff57 	bl	80007f0 <xQueueGenericReset>
 8000942:	69fb      	ldr	r3, [r7, #28]
 8000944:	79fa      	ldrb	r2, [r7, #7]
 8000946:	f883 2050 	strb.w	r2, [r3, #80]	; 0x50
 800094a:	69fb      	ldr	r3, [r7, #28]
 800094c:	623b      	str	r3, [r7, #32]
 800094e:	6a3b      	ldr	r3, [r7, #32]
 8000950:	2b00      	cmp	r3, #0
 8000952:	d109      	bne.n	8000968 <xQueueGenericCreate+0xa8>
 8000954:	f04f 0310 	mov.w	r3, #16
 8000958:	f383 8811 	msr	BASEPRI, r3
 800095c:	f3bf 8f6f 	isb	sy
 8000960:	f3bf 8f4f 	dsb	sy
 8000964:	617b      	str	r3, [r7, #20]
 8000966:	e7fe      	b.n	8000966 <xQueueGenericCreate+0xa6>
 8000968:	6a3b      	ldr	r3, [r7, #32]
 800096a:	4618      	mov	r0, r3
 800096c:	3728      	adds	r7, #40	; 0x28
 800096e:	46bd      	mov	sp, r7
 8000970:	bd80      	pop	{r7, pc}

08000972 <xQueueCreateMutex>:
 8000972:	b580      	push	{r7, lr}
 8000974:	b084      	sub	sp, #16
 8000976:	af00      	add	r7, sp, #0
 8000978:	4603      	mov	r3, r0
 800097a:	71fb      	strb	r3, [r7, #7]
 800097c:	2054      	movs	r0, #84	; 0x54
 800097e:	f003 fe31 	bl	80045e4 <pvPortMalloc>
 8000982:	60f8      	str	r0, [r7, #12]
 8000984:	68fb      	ldr	r3, [r7, #12]
 8000986:	2b00      	cmp	r3, #0
 8000988:	d030      	beq.n	80009ec <xQueueCreateMutex+0x7a>
 800098a:	68fb      	ldr	r3, [r7, #12]
 800098c:	2200      	movs	r2, #0
 800098e:	605a      	str	r2, [r3, #4]
 8000990:	68fb      	ldr	r3, [r7, #12]
 8000992:	2200      	movs	r2, #0
 8000994:	601a      	str	r2, [r3, #0]
 8000996:	68fb      	ldr	r3, [r7, #12]
 8000998:	2200      	movs	r2, #0
 800099a:	609a      	str	r2, [r3, #8]
 800099c:	68fb      	ldr	r3, [r7, #12]
 800099e:	2200      	movs	r2, #0
 80009a0:	60da      	str	r2, [r3, #12]
 80009a2:	68fb      	ldr	r3, [r7, #12]
 80009a4:	2200      	movs	r2, #0
 80009a6:	639a      	str	r2, [r3, #56]	; 0x38
 80009a8:	68fb      	ldr	r3, [r7, #12]
 80009aa:	2201      	movs	r2, #1
 80009ac:	63da      	str	r2, [r3, #60]	; 0x3c
 80009ae:	68fb      	ldr	r3, [r7, #12]
 80009b0:	2200      	movs	r2, #0
 80009b2:	641a      	str	r2, [r3, #64]	; 0x40
 80009b4:	68fb      	ldr	r3, [r7, #12]
 80009b6:	f04f 32ff 	mov.w	r2, #4294967295	; 0xffffffff
 80009ba:	645a      	str	r2, [r3, #68]	; 0x44
 80009bc:	68fb      	ldr	r3, [r7, #12]
 80009be:	f04f 32ff 	mov.w	r2, #4294967295	; 0xffffffff
 80009c2:	649a      	str	r2, [r3, #72]	; 0x48
 80009c4:	68fb      	ldr	r3, [r7, #12]
 80009c6:	79fa      	ldrb	r2, [r7, #7]
 80009c8:	f883 2050 	strb.w	r2, [r3, #80]	; 0x50
 80009cc:	68fb      	ldr	r3, [r7, #12]
 80009ce:	3310      	adds	r3, #16
 80009d0:	4618      	mov	r0, r3
 80009d2:	f7ff fe59 	bl	8000688 <vListInitialise>
 80009d6:	68fb      	ldr	r3, [r7, #12]
 80009d8:	3324      	adds	r3, #36	; 0x24
 80009da:	4618      	mov	r0, r3
 80009dc:	f7ff fe54 	bl	8000688 <vListInitialise>
 80009e0:	2300      	movs	r3, #0
 80009e2:	2200      	movs	r2, #0
 80009e4:	2100      	movs	r1, #0
 80009e6:	68f8      	ldr	r0, [r7, #12]
 80009e8:	f000 f8ad 	bl	8000b46 <xQueueGenericSend>
 80009ec:	68fb      	ldr	r3, [r7, #12]
 80009ee:	4618      	mov	r0, r3
 80009f0:	3710      	adds	r7, #16
 80009f2:	46bd      	mov	sp, r7
 80009f4:	bd80      	pop	{r7, pc}

080009f6 <xQueueGiveMutexRecursive>:
 80009f6:	b590      	push	{r4, r7, lr}
 80009f8:	b087      	sub	sp, #28
 80009fa:	af00      	add	r7, sp, #0
 80009fc:	6078      	str	r0, [r7, #4]
 80009fe:	687b      	ldr	r3, [r7, #4]
 8000a00:	613b      	str	r3, [r7, #16]
 8000a02:	693b      	ldr	r3, [r7, #16]
 8000a04:	2b00      	cmp	r3, #0
 8000a06:	d109      	bne.n	8000a1c <xQueueGiveMutexRecursive+0x26>
 8000a08:	f04f 0310 	mov.w	r3, #16
 8000a0c:	f383 8811 	msr	BASEPRI, r3
 8000a10:	f3bf 8f6f 	isb	sy
 8000a14:	f3bf 8f4f 	dsb	sy
 8000a18:	60fb      	str	r3, [r7, #12]
 8000a1a:	e7fe      	b.n	8000a1a <xQueueGiveMutexRecursive+0x24>
 8000a1c:	693b      	ldr	r3, [r7, #16]
 8000a1e:	685c      	ldr	r4, [r3, #4]
 8000a20:	f002 fb1e 	bl	8003060 <xTaskGetCurrentTaskHandle>
 8000a24:	4603      	mov	r3, r0
 8000a26:	429c      	cmp	r4, r3
 8000a28:	d111      	bne.n	8000a4e <xQueueGiveMutexRecursive+0x58>
 8000a2a:	693b      	ldr	r3, [r7, #16]
 8000a2c:	68db      	ldr	r3, [r3, #12]
 8000a2e:	1e5a      	subs	r2, r3, #1
 8000a30:	693b      	ldr	r3, [r7, #16]
 8000a32:	60da      	str	r2, [r3, #12]
 8000a34:	693b      	ldr	r3, [r7, #16]
 8000a36:	68db      	ldr	r3, [r3, #12]
 8000a38:	2b00      	cmp	r3, #0
 8000a3a:	d105      	bne.n	8000a48 <xQueueGiveMutexRecursive+0x52>
 8000a3c:	2300      	movs	r3, #0
 8000a3e:	2200      	movs	r2, #0
 8000a40:	2100      	movs	r1, #0
 8000a42:	6938      	ldr	r0, [r7, #16]
 8000a44:	f000 f87f 	bl	8000b46 <xQueueGenericSend>
 8000a48:	2301      	movs	r3, #1
 8000a4a:	617b      	str	r3, [r7, #20]
 8000a4c:	e001      	b.n	8000a52 <xQueueGiveMutexRecursive+0x5c>
 8000a4e:	2300      	movs	r3, #0
 8000a50:	617b      	str	r3, [r7, #20]
 8000a52:	697b      	ldr	r3, [r7, #20]
 8000a54:	4618      	mov	r0, r3
 8000a56:	371c      	adds	r7, #28
 8000a58:	46bd      	mov	sp, r7
 8000a5a:	bd90      	pop	{r4, r7, pc}

08000a5c <xQueueTakeMutexRecursive>:
 8000a5c:	b590      	push	{r4, r7, lr}
 8000a5e:	b087      	sub	sp, #28
 8000a60:	af00      	add	r7, sp, #0
 8000a62:	6078      	str	r0, [r7, #4]
 8000a64:	6039      	str	r1, [r7, #0]
 8000a66:	687b      	ldr	r3, [r7, #4]
 8000a68:	613b      	str	r3, [r7, #16]
 8000a6a:	693b      	ldr	r3, [r7, #16]
 8000a6c:	2b00      	cmp	r3, #0
 8000a6e:	d109      	bne.n	8000a84 <xQueueTakeMutexRecursive+0x28>
 8000a70:	f04f 0310 	mov.w	r3, #16
 8000a74:	f383 8811 	msr	BASEPRI, r3
 8000a78:	f3bf 8f6f 	isb	sy
 8000a7c:	f3bf 8f4f 	dsb	sy
 8000a80:	60fb      	str	r3, [r7, #12]
 8000a82:	e7fe      	b.n	8000a82 <xQueueTakeMutexRecursive+0x26>
 8000a84:	693b      	ldr	r3, [r7, #16]
 8000a86:	685c      	ldr	r4, [r3, #4]
 8000a88:	f002 faea 	bl	8003060 <xTaskGetCurrentTaskHandle>
 8000a8c:	4603      	mov	r3, r0
 8000a8e:	429c      	cmp	r4, r3
 8000a90:	d107      	bne.n	8000aa2 <xQueueTakeMutexRecursive+0x46>
 8000a92:	693b      	ldr	r3, [r7, #16]
 8000a94:	68db      	ldr	r3, [r3, #12]
 8000a96:	1c5a      	adds	r2, r3, #1
 8000a98:	693b      	ldr	r3, [r7, #16]
 8000a9a:	60da      	str	r2, [r3, #12]
 8000a9c:	2301      	movs	r3, #1
 8000a9e:	617b      	str	r3, [r7, #20]
 8000aa0:	e00e      	b.n	8000ac0 <xQueueTakeMutexRecursive+0x64>
 8000aa2:	2300      	movs	r3, #0
 8000aa4:	683a      	ldr	r2, [r7, #0]
 8000aa6:	2100      	movs	r1, #0
 8000aa8:	6938      	ldr	r0, [r7, #16]
 8000aaa:	f000 fa4b 	bl	8000f44 <xQueueGenericReceive>
 8000aae:	6178      	str	r0, [r7, #20]
 8000ab0:	697b      	ldr	r3, [r7, #20]
 8000ab2:	2b01      	cmp	r3, #1
 8000ab4:	d104      	bne.n	8000ac0 <xQueueTakeMutexRecursive+0x64>
 8000ab6:	693b      	ldr	r3, [r7, #16]
 8000ab8:	68db      	ldr	r3, [r3, #12]
 8000aba:	1c5a      	adds	r2, r3, #1
 8000abc:	693b      	ldr	r3, [r7, #16]
 8000abe:	60da      	str	r2, [r3, #12]
 8000ac0:	697b      	ldr	r3, [r7, #20]
 8000ac2:	4618      	mov	r0, r3
 8000ac4:	371c      	adds	r7, #28
 8000ac6:	46bd      	mov	sp, r7
 8000ac8:	bd90      	pop	{r4, r7, pc}

08000aca <xQueueCreateCountingSemaphore>:
 8000aca:	b580      	push	{r7, lr}
 8000acc:	b086      	sub	sp, #24
 8000ace:	af00      	add	r7, sp, #0
 8000ad0:	6078      	str	r0, [r7, #4]
 8000ad2:	6039      	str	r1, [r7, #0]
 8000ad4:	687b      	ldr	r3, [r7, #4]
 8000ad6:	2b00      	cmp	r3, #0
 8000ad8:	d109      	bne.n	8000aee <xQueueCreateCountingSemaphore+0x24>
 8000ada:	f04f 0310 	mov.w	r3, #16
 8000ade:	f383 8811 	msr	BASEPRI, r3
 8000ae2:	f3bf 8f6f 	isb	sy
 8000ae6:	f3bf 8f4f 	dsb	sy
 8000aea:	613b      	str	r3, [r7, #16]
 8000aec:	e7fe      	b.n	8000aec <xQueueCreateCountingSemaphore+0x22>
 8000aee:	683a      	ldr	r2, [r7, #0]
 8000af0:	687b      	ldr	r3, [r7, #4]
 8000af2:	429a      	cmp	r2, r3
 8000af4:	d909      	bls.n	8000b0a <xQueueCreateCountingSemaphore+0x40>
 8000af6:	f04f 0310 	mov.w	r3, #16
 8000afa:	f383 8811 	msr	BASEPRI, r3
 8000afe:	f3bf 8f6f 	isb	sy
 8000b02:	f3bf 8f4f 	dsb	sy
 8000b06:	60fb      	str	r3, [r7, #12]
 8000b08:	e7fe      	b.n	8000b08 <xQueueCreateCountingSemaphore+0x3e>
 8000b0a:	2202      	movs	r2, #2
 8000b0c:	2100      	movs	r1, #0
 8000b0e:	6878      	ldr	r0, [r7, #4]
 8000b10:	f7ff fed6 	bl	80008c0 <xQueueGenericCreate>
 8000b14:	6178      	str	r0, [r7, #20]
 8000b16:	697b      	ldr	r3, [r7, #20]
 8000b18:	2b00      	cmp	r3, #0
 8000b1a:	d002      	beq.n	8000b22 <xQueueCreateCountingSemaphore+0x58>
 8000b1c:	697b      	ldr	r3, [r7, #20]
 8000b1e:	683a      	ldr	r2, [r7, #0]
 8000b20:	639a      	str	r2, [r3, #56]	; 0x38
 8000b22:	697b      	ldr	r3, [r7, #20]
 8000b24:	2b00      	cmp	r3, #0
 8000b26:	d109      	bne.n	8000b3c <xQueueCreateCountingSemaphore+0x72>
 8000b28:	f04f 0310 	mov.w	r3, #16
 8000b2c:	f383 8811 	msr	BASEPRI, r3
 8000b30:	f3bf 8f6f 	isb	sy
 8000b34:	f3bf 8f4f 	dsb	sy
 8000b38:	60bb      	str	r3, [r7, #8]
 8000b3a:	e7fe      	b.n	8000b3a <xQueueCreateCountingSemaphore+0x70>
 8000b3c:	697b      	ldr	r3, [r7, #20]
 8000b3e:	4618      	mov	r0, r3
 8000b40:	3718      	adds	r7, #24
 8000b42:	46bd      	mov	sp, r7
 8000b44:	bd80      	pop	{r7, pc}

08000b46 <xQueueGenericSend>:
 8000b46:	b580      	push	{r7, lr}
 8000b48:	b08e      	sub	sp, #56	; 0x38
 8000b4a:	af00      	add	r7, sp, #0
 8000b4c:	60f8      	str	r0, [r7, #12]
 8000b4e:	60b9      	str	r1, [r7, #8]
 8000b50:	607a      	str	r2, [r7, #4]
 8000b52:	603b      	str	r3, [r7, #0]
 8000b54:	2300      	movs	r3, #0
 8000b56:	637b      	str	r3, [r7, #52]	; 0x34
 8000b58:	68fb      	ldr	r3, [r7, #12]
 8000b5a:	633b      	str	r3, [r7, #48]	; 0x30
 8000b5c:	6b3b      	ldr	r3, [r7, #48]	; 0x30
 8000b5e:	2b00      	cmp	r3, #0
 8000b60:	d109      	bne.n	8000b76 <xQueueGenericSend+0x30>
 8000b62:	f04f 0310 	mov.w	r3, #16
 8000b66:	f383 8811 	msr	BASEPRI, r3
 8000b6a:	f3bf 8f6f 	isb	sy
 8000b6e:	f3bf 8f4f 	dsb	sy
 8000b72:	62bb      	str	r3, [r7, #40]	; 0x28
 8000b74:	e7fe      	b.n	8000b74 <xQueueGenericSend+0x2e>
 8000b76:	68bb      	ldr	r3, [r7, #8]
 8000b78:	2b00      	cmp	r3, #0
 8000b7a:	d103      	bne.n	8000b84 <xQueueGenericSend+0x3e>
 8000b7c:	6b3b      	ldr	r3, [r7, #48]	; 0x30
 8000b7e:	6c1b      	ldr	r3, [r3, #64]	; 0x40
 8000b80:	2b00      	cmp	r3, #0
 8000b82:	d101      	bne.n	8000b88 <xQueueGenericSend+0x42>
 8000b84:	2301      	movs	r3, #1
 8000b86:	e000      	b.n	8000b8a <xQueueGenericSend+0x44>
 8000b88:	2300      	movs	r3, #0
 8000b8a:	2b00      	cmp	r3, #0
 8000b8c:	d109      	bne.n	8000ba2 <xQueueGenericSend+0x5c>
 8000b8e:	f04f 0310 	mov.w	r3, #16
 8000b92:	f383 8811 	msr	BASEPRI, r3
 8000b96:	f3bf 8f6f 	isb	sy
 8000b9a:	f3bf 8f4f 	dsb	sy
 8000b9e:	627b      	str	r3, [r7, #36]	; 0x24
 8000ba0:	e7fe      	b.n	8000ba0 <xQueueGenericSend+0x5a>
 8000ba2:	683b      	ldr	r3, [r7, #0]
 8000ba4:	2b02      	cmp	r3, #2
 8000ba6:	d103      	bne.n	8000bb0 <xQueueGenericSend+0x6a>
 8000ba8:	6b3b      	ldr	r3, [r7, #48]	; 0x30
 8000baa:	6bdb      	ldr	r3, [r3, #60]	; 0x3c
 8000bac:	2b01      	cmp	r3, #1
 8000bae:	d101      	bne.n	8000bb4 <xQueueGenericSend+0x6e>
 8000bb0:	2301      	movs	r3, #1
 8000bb2:	e000      	b.n	8000bb6 <xQueueGenericSend+0x70>
 8000bb4:	2300      	movs	r3, #0
 8000bb6:	2b00      	cmp	r3, #0
 8000bb8:	d109      	bne.n	8000bce <xQueueGenericSend+0x88>
 8000bba:	f04f 0310 	mov.w	r3, #16
 8000bbe:	f383 8811 	msr	BASEPRI, r3
 8000bc2:	f3bf 8f6f 	isb	sy
 8000bc6:	f3bf 8f4f 	dsb	sy
 8000bca:	623b      	str	r3, [r7, #32]
 8000bcc:	e7fe      	b.n	8000bcc <xQueueGenericSend+0x86>
 8000bce:	f002 fa57 	bl	8003080 <xTaskGetSchedulerState>
 8000bd2:	4603      	mov	r3, r0
 8000bd4:	2b00      	cmp	r3, #0
 8000bd6:	d102      	bne.n	8000bde <xQueueGenericSend+0x98>
 8000bd8:	687b      	ldr	r3, [r7, #4]
 8000bda:	2b00      	cmp	r3, #0
 8000bdc:	d101      	bne.n	8000be2 <xQueueGenericSend+0x9c>
 8000bde:	2301      	movs	r3, #1
 8000be0:	e000      	b.n	8000be4 <xQueueGenericSend+0x9e>
 8000be2:	2300      	movs	r3, #0
 8000be4:	2b00      	cmp	r3, #0
 8000be6:	d109      	bne.n	8000bfc <xQueueGenericSend+0xb6>
 8000be8:	f04f 0310 	mov.w	r3, #16
 8000bec:	f383 8811 	msr	BASEPRI, r3
 8000bf0:	f3bf 8f6f 	isb	sy
 8000bf4:	f3bf 8f4f 	dsb	sy
 8000bf8:	61fb      	str	r3, [r7, #28]
 8000bfa:	e7fe      	b.n	8000bfa <xQueueGenericSend+0xb4>
 8000bfc:	f003 fbe2 	bl	80043c4 <vPortEnterCritical>
 8000c00:	6b3b      	ldr	r3, [r7, #48]	; 0x30
 8000c02:	6b9a      	ldr	r2, [r3, #56]	; 0x38
 8000c04:	6b3b      	ldr	r3, [r7, #48]	; 0x30
 8000c06:	6bdb      	ldr	r3, [r3, #60]	; 0x3c
 8000c08:	429a      	cmp	r2, r3
 8000c0a:	d302      	bcc.n	8000c12 <xQueueGenericSend+0xcc>
 8000c0c:	683b      	ldr	r3, [r7, #0]
 8000c0e:	2b02      	cmp	r3, #2
 8000c10:	d129      	bne.n	8000c66 <xQueueGenericSend+0x120>
 8000c12:	683a      	ldr	r2, [r7, #0]
 8000c14:	68b9      	ldr	r1, [r7, #8]
 8000c16:	6b38      	ldr	r0, [r7, #48]	; 0x30
 8000c18:	f000 fc0f 	bl	800143a <prvCopyDataToQueue>
 8000c1c:	62f8      	str	r0, [r7, #44]	; 0x2c
 8000c1e:	6b3b      	ldr	r3, [r7, #48]	; 0x30
 8000c20:	6a5b      	ldr	r3, [r3, #36]	; 0x24
 8000c22:	2b00      	cmp	r3, #0
 8000c24:	d010      	beq.n	8000c48 <xQueueGenericSend+0x102>
 8000c26:	6b3b      	ldr	r3, [r7, #48]	; 0x30
 8000c28:	3324      	adds	r3, #36	; 0x24
 8000c2a:	4618      	mov	r0, r3
 8000c2c:	f001 fe7a 	bl	8002924 <xTaskRemoveFromEventList>
 8000c30:	4603      	mov	r3, r0
 8000c32:	2b01      	cmp	r3, #1
 8000c34:	d113      	bne.n	8000c5e <xQueueGenericSend+0x118>
 8000c36:	4b3c      	ldr	r3, [pc, #240]	; (8000d28 <xQueueGenericSend+0x1e2>)
 8000c38:	f04f 5280 	mov.w	r2, #268435456	; 0x10000000
 8000c3c:	601a      	str	r2, [r3, #0]
 8000c3e:	f3bf 8f4f 	dsb	sy
 8000c42:	f3bf 8f6f 	isb	sy
 8000c46:	e00a      	b.n	8000c5e <xQueueGenericSend+0x118>
 8000c48:	6afb      	ldr	r3, [r7, #44]	; 0x2c
 8000c4a:	2b00      	cmp	r3, #0
 8000c4c:	d007      	beq.n	8000c5e <xQueueGenericSend+0x118>
 8000c4e:	4b36      	ldr	r3, [pc, #216]	; (8000d28 <xQueueGenericSend+0x1e2>)
 8000c50:	f04f 5280 	mov.w	r2, #268435456	; 0x10000000
 8000c54:	601a      	str	r2, [r3, #0]
 8000c56:	f3bf 8f4f 	dsb	sy
 8000c5a:	f3bf 8f6f 	isb	sy
 8000c5e:	f003 fbdf 	bl	8004420 <vPortExitCritical>
 8000c62:	2301      	movs	r3, #1
 8000c64:	e05c      	b.n	8000d20 <xQueueGenericSend+0x1da>
 8000c66:	687b      	ldr	r3, [r7, #4]
 8000c68:	2b00      	cmp	r3, #0
 8000c6a:	d103      	bne.n	8000c74 <xQueueGenericSend+0x12e>
 8000c6c:	f003 fbd8 	bl	8004420 <vPortExitCritical>
 8000c70:	2300      	movs	r3, #0
 8000c72:	e055      	b.n	8000d20 <xQueueGenericSend+0x1da>
 8000c74:	6b7b      	ldr	r3, [r7, #52]	; 0x34
 8000c76:	2b00      	cmp	r3, #0
 8000c78:	d106      	bne.n	8000c88 <xQueueGenericSend+0x142>
 8000c7a:	f107 0314 	add.w	r3, r7, #20
 8000c7e:	4618      	mov	r0, r3
 8000c80:	f001 ff18 	bl	8002ab4 <vTaskSetTimeOutState>
 8000c84:	2301      	movs	r3, #1
 8000c86:	637b      	str	r3, [r7, #52]	; 0x34
 8000c88:	f003 fbca 	bl	8004420 <vPortExitCritical>
 8000c8c:	f001 faba 	bl	8002204 <vTaskSuspendAll>
 8000c90:	f003 fb98 	bl	80043c4 <vPortEnterCritical>
 8000c94:	6b3b      	ldr	r3, [r7, #48]	; 0x30
 8000c96:	6c5b      	ldr	r3, [r3, #68]	; 0x44
 8000c98:	f1b3 3fff 	cmp.w	r3, #4294967295	; 0xffffffff
 8000c9c:	d102      	bne.n	8000ca4 <xQueueGenericSend+0x15e>
 8000c9e:	6b3b      	ldr	r3, [r7, #48]	; 0x30
 8000ca0:	2200      	movs	r2, #0
 8000ca2:	645a      	str	r2, [r3, #68]	; 0x44
 8000ca4:	6b3b      	ldr	r3, [r7, #48]	; 0x30
 8000ca6:	6c9b      	ldr	r3, [r3, #72]	; 0x48
 8000ca8:	f1b3 3fff 	cmp.w	r3, #4294967295	; 0xffffffff
 8000cac:	d102      	bne.n	8000cb4 <xQueueGenericSend+0x16e>
 8000cae:	6b3b      	ldr	r3, [r7, #48]	; 0x30
 8000cb0:	2200      	movs	r2, #0
 8000cb2:	649a      	str	r2, [r3, #72]	; 0x48
 8000cb4:	f003 fbb4 	bl	8004420 <vPortExitCritical>
 8000cb8:	1d3a      	adds	r2, r7, #4
 8000cba:	f107 0314 	add.w	r3, r7, #20
 8000cbe:	4611      	mov	r1, r2
 8000cc0:	4618      	mov	r0, r3
 8000cc2:	f001 ff1b 	bl	8002afc <xTaskCheckForTimeOut>
 8000cc6:	4603      	mov	r3, r0
 8000cc8:	2b00      	cmp	r3, #0
 8000cca:	d123      	bne.n	8000d14 <xQueueGenericSend+0x1ce>
 8000ccc:	6b38      	ldr	r0, [r7, #48]	; 0x30
 8000cce:	f000 fcc8 	bl	8001662 <prvIsQueueFull>
 8000cd2:	4603      	mov	r3, r0
 8000cd4:	2b00      	cmp	r3, #0
 8000cd6:	d017      	beq.n	8000d08 <xQueueGenericSend+0x1c2>
 8000cd8:	6b3b      	ldr	r3, [r7, #48]	; 0x30
 8000cda:	3310      	adds	r3, #16
 8000cdc:	687a      	ldr	r2, [r7, #4]
 8000cde:	4611      	mov	r1, r2
 8000ce0:	4618      	mov	r0, r3
 8000ce2:	f001 fd1d 	bl	8002720 <vTaskPlaceOnEventList>
 8000ce6:	6b38      	ldr	r0, [r7, #48]	; 0x30
 8000ce8:	f000 fc38 	bl	800155c <prvUnlockQueue>
 8000cec:	f001 fa98 	bl	8002220 <xTaskResumeAll>
 8000cf0:	4603      	mov	r3, r0
 8000cf2:	2b00      	cmp	r3, #0
 8000cf4:	d182      	bne.n	8000bfc <xQueueGenericSend+0xb6>
 8000cf6:	4b0c      	ldr	r3, [pc, #48]	; (8000d28 <xQueueGenericSend+0x1e2>)
 8000cf8:	f04f 5280 	mov.w	r2, #268435456	; 0x10000000
 8000cfc:	601a      	str	r2, [r3, #0]
 8000cfe:	f3bf 8f4f 	dsb	sy
 8000d02:	f3bf 8f6f 	isb	sy
 8000d06:	e779      	b.n	8000bfc <xQueueGenericSend+0xb6>
 8000d08:	6b38      	ldr	r0, [r7, #48]	; 0x30
 8000d0a:	f000 fc27 	bl	800155c <prvUnlockQueue>
 8000d0e:	f001 fa87 	bl	8002220 <xTaskResumeAll>
 8000d12:	e773      	b.n	8000bfc <xQueueGenericSend+0xb6>
 8000d14:	6b38      	ldr	r0, [r7, #48]	; 0x30
 8000d16:	f000 fc21 	bl	800155c <prvUnlockQueue>
 8000d1a:	f001 fa81 	bl	8002220 <xTaskResumeAll>
 8000d1e:	2300      	movs	r3, #0
 8000d20:	4618      	mov	r0, r3
 8000d22:	3738      	adds	r7, #56	; 0x38
 8000d24:	46bd      	mov	sp, r7
 8000d26:	bd80      	pop	{r7, pc}
 8000d28:	e000ed04 	and	lr, r0, r4, lsl #26

08000d2c <xQueueGenericSendFromISR>:
 8000d2c:	b580      	push	{r7, lr}
 8000d2e:	b08e      	sub	sp, #56	; 0x38
 8000d30:	af00      	add	r7, sp, #0
 8000d32:	60f8      	str	r0, [r7, #12]
 8000d34:	60b9      	str	r1, [r7, #8]
 8000d36:	607a      	str	r2, [r7, #4]
 8000d38:	603b      	str	r3, [r7, #0]
 8000d3a:	68fb      	ldr	r3, [r7, #12]
 8000d3c:	633b      	str	r3, [r7, #48]	; 0x30
 8000d3e:	6b3b      	ldr	r3, [r7, #48]	; 0x30
 8000d40:	2b00      	cmp	r3, #0
 8000d42:	d109      	bne.n	8000d58 <xQueueGenericSendFromISR+0x2c>
 8000d44:	f04f 0310 	mov.w	r3, #16
 8000d48:	f383 8811 	msr	BASEPRI, r3
 8000d4c:	f3bf 8f6f 	isb	sy
 8000d50:	f3bf 8f4f 	dsb	sy
 8000d54:	62bb      	str	r3, [r7, #40]	; 0x28
 8000d56:	e7fe      	b.n	8000d56 <xQueueGenericSendFromISR+0x2a>
 8000d58:	68bb      	ldr	r3, [r7, #8]
 8000d5a:	2b00      	cmp	r3, #0
 8000d5c:	d103      	bne.n	8000d66 <xQueueGenericSendFromISR+0x3a>
 8000d5e:	6b3b      	ldr	r3, [r7, #48]	; 0x30
 8000d60:	6c1b      	ldr	r3, [r3, #64]	; 0x40
 8000d62:	2b00      	cmp	r3, #0
 8000d64:	d101      	bne.n	8000d6a <xQueueGenericSendFromISR+0x3e>
 8000d66:	2301      	movs	r3, #1
 8000d68:	e000      	b.n	8000d6c <xQueueGenericSendFromISR+0x40>
 8000d6a:	2300      	movs	r3, #0
 8000d6c:	2b00      	cmp	r3, #0
 8000d6e:	d109      	bne.n	8000d84 <xQueueGenericSendFromISR+0x58>
 8000d70:	f04f 0310 	mov.w	r3, #16
 8000d74:	f383 8811 	msr	BASEPRI, r3
 8000d78:	f3bf 8f6f 	isb	sy
 8000d7c:	f3bf 8f4f 	dsb	sy
 8000d80:	627b      	str	r3, [r7, #36]	; 0x24
 8000d82:	e7fe      	b.n	8000d82 <xQueueGenericSendFromISR+0x56>
 8000d84:	683b      	ldr	r3, [r7, #0]
 8000d86:	2b02      	cmp	r3, #2
 8000d88:	d103      	bne.n	8000d92 <xQueueGenericSendFromISR+0x66>
 8000d8a:	6b3b      	ldr	r3, [r7, #48]	; 0x30
 8000d8c:	6bdb      	ldr	r3, [r3, #60]	; 0x3c
 8000d8e:	2b01      	cmp	r3, #1
 8000d90:	d101      	bne.n	8000d96 <xQueueGenericSendFromISR+0x6a>
 8000d92:	2301      	movs	r3, #1
 8000d94:	e000      	b.n	8000d98 <xQueueGenericSendFromISR+0x6c>
 8000d96:	2300      	movs	r3, #0
 8000d98:	2b00      	cmp	r3, #0
 8000d9a:	d109      	bne.n	8000db0 <xQueueGenericSendFromISR+0x84>
 8000d9c:	f04f 0310 	mov.w	r3, #16
 8000da0:	f383 8811 	msr	BASEPRI, r3
 8000da4:	f3bf 8f6f 	isb	sy
 8000da8:	f3bf 8f4f 	dsb	sy
 8000dac:	623b      	str	r3, [r7, #32]
 8000dae:	e7fe      	b.n	8000dae <xQueueGenericSendFromISR+0x82>
 8000db0:	f003 fbd6 	bl	8004560 <vPortValidateInterruptPriority>
 8000db4:	f3ef 8211 	mrs	r2, BASEPRI
 8000db8:	f04f 0310 	mov.w	r3, #16
 8000dbc:	f383 8811 	msr	BASEPRI, r3
 8000dc0:	f3bf 8f6f 	isb	sy
 8000dc4:	f3bf 8f4f 	dsb	sy
 8000dc8:	61fa      	str	r2, [r7, #28]
 8000dca:	61bb      	str	r3, [r7, #24]
 8000dcc:	69fb      	ldr	r3, [r7, #28]
 8000dce:	62fb      	str	r3, [r7, #44]	; 0x2c
 8000dd0:	6b3b      	ldr	r3, [r7, #48]	; 0x30
 8000dd2:	6b9a      	ldr	r2, [r3, #56]	; 0x38
 8000dd4:	6b3b      	ldr	r3, [r7, #48]	; 0x30
 8000dd6:	6bdb      	ldr	r3, [r3, #60]	; 0x3c
 8000dd8:	429a      	cmp	r2, r3
 8000dda:	d302      	bcc.n	8000de2 <xQueueGenericSendFromISR+0xb6>
 8000ddc:	683b      	ldr	r3, [r7, #0]
 8000dde:	2b02      	cmp	r3, #2
 8000de0:	d124      	bne.n	8000e2c <xQueueGenericSendFromISR+0x100>
 8000de2:	683a      	ldr	r2, [r7, #0]
 8000de4:	68b9      	ldr	r1, [r7, #8]
 8000de6:	6b38      	ldr	r0, [r7, #48]	; 0x30
 8000de8:	f000 fb27 	bl	800143a <prvCopyDataToQueue>
 8000dec:	6b3b      	ldr	r3, [r7, #48]	; 0x30
 8000dee:	6c9b      	ldr	r3, [r3, #72]	; 0x48
 8000df0:	f1b3 3fff 	cmp.w	r3, #4294967295	; 0xffffffff
 8000df4:	d112      	bne.n	8000e1c <xQueueGenericSendFromISR+0xf0>
 8000df6:	6b3b      	ldr	r3, [r7, #48]	; 0x30
 8000df8:	6a5b      	ldr	r3, [r3, #36]	; 0x24
 8000dfa:	2b00      	cmp	r3, #0
 8000dfc:	d013      	beq.n	8000e26 <xQueueGenericSendFromISR+0xfa>
 8000dfe:	6b3b      	ldr	r3, [r7, #48]	; 0x30
 8000e00:	3324      	adds	r3, #36	; 0x24
 8000e02:	4618      	mov	r0, r3
 8000e04:	f001 fd8e 	bl	8002924 <xTaskRemoveFromEventList>
 8000e08:	4603      	mov	r3, r0
 8000e0a:	2b00      	cmp	r3, #0
 8000e0c:	d00b      	beq.n	8000e26 <xQueueGenericSendFromISR+0xfa>
 8000e0e:	687b      	ldr	r3, [r7, #4]
 8000e10:	2b00      	cmp	r3, #0
 8000e12:	d008      	beq.n	8000e26 <xQueueGenericSendFromISR+0xfa>
 8000e14:	687b      	ldr	r3, [r7, #4]
 8000e16:	2201      	movs	r2, #1
 8000e18:	601a      	str	r2, [r3, #0]
 8000e1a:	e004      	b.n	8000e26 <xQueueGenericSendFromISR+0xfa>
 8000e1c:	6b3b      	ldr	r3, [r7, #48]	; 0x30
 8000e1e:	6c9b      	ldr	r3, [r3, #72]	; 0x48
 8000e20:	1c5a      	adds	r2, r3, #1
 8000e22:	6b3b      	ldr	r3, [r7, #48]	; 0x30
 8000e24:	649a      	str	r2, [r3, #72]	; 0x48
 8000e26:	2301      	movs	r3, #1
 8000e28:	637b      	str	r3, [r7, #52]	; 0x34
 8000e2a:	e001      	b.n	8000e30 <xQueueGenericSendFromISR+0x104>
 8000e2c:	2300      	movs	r3, #0
 8000e2e:	637b      	str	r3, [r7, #52]	; 0x34
 8000e30:	6afb      	ldr	r3, [r7, #44]	; 0x2c
 8000e32:	617b      	str	r3, [r7, #20]
 8000e34:	697b      	ldr	r3, [r7, #20]
 8000e36:	f383 8811 	msr	BASEPRI, r3
 8000e3a:	6b7b      	ldr	r3, [r7, #52]	; 0x34
 8000e3c:	4618      	mov	r0, r3
 8000e3e:	3738      	adds	r7, #56	; 0x38
 8000e40:	46bd      	mov	sp, r7
 8000e42:	bd80      	pop	{r7, pc}

08000e44 <xQueueGiveFromISR>:
 8000e44:	b580      	push	{r7, lr}
 8000e46:	b08c      	sub	sp, #48	; 0x30
 8000e48:	af00      	add	r7, sp, #0
 8000e4a:	6078      	str	r0, [r7, #4]
 8000e4c:	6039      	str	r1, [r7, #0]
 8000e4e:	687b      	ldr	r3, [r7, #4]
 8000e50:	62bb      	str	r3, [r7, #40]	; 0x28
 8000e52:	6abb      	ldr	r3, [r7, #40]	; 0x28
 8000e54:	2b00      	cmp	r3, #0
 8000e56:	d109      	bne.n	8000e6c <xQueueGiveFromISR+0x28>
 8000e58:	f04f 0310 	mov.w	r3, #16
 8000e5c:	f383 8811 	msr	BASEPRI, r3
 8000e60:	f3bf 8f6f 	isb	sy
 8000e64:	f3bf 8f4f 	dsb	sy
 8000e68:	623b      	str	r3, [r7, #32]
 8000e6a:	e7fe      	b.n	8000e6a <xQueueGiveFromISR+0x26>
 8000e6c:	6abb      	ldr	r3, [r7, #40]	; 0x28
 8000e6e:	6c1b      	ldr	r3, [r3, #64]	; 0x40
 8000e70:	2b00      	cmp	r3, #0
 8000e72:	d009      	beq.n	8000e88 <xQueueGiveFromISR+0x44>
 8000e74:	f04f 0310 	mov.w	r3, #16
 8000e78:	f383 8811 	msr	BASEPRI, r3
 8000e7c:	f3bf 8f6f 	isb	sy
 8000e80:	f3bf 8f4f 	dsb	sy
 8000e84:	61fb      	str	r3, [r7, #28]
 8000e86:	e7fe      	b.n	8000e86 <xQueueGiveFromISR+0x42>
 8000e88:	6abb      	ldr	r3, [r7, #40]	; 0x28
 8000e8a:	681b      	ldr	r3, [r3, #0]
 8000e8c:	2b00      	cmp	r3, #0
 8000e8e:	d103      	bne.n	8000e98 <xQueueGiveFromISR+0x54>
 8000e90:	6abb      	ldr	r3, [r7, #40]	; 0x28
 8000e92:	685b      	ldr	r3, [r3, #4]
 8000e94:	2b00      	cmp	r3, #0
 8000e96:	d101      	bne.n	8000e9c <xQueueGiveFromISR+0x58>
 8000e98:	2301      	movs	r3, #1
 8000e9a:	e000      	b.n	8000e9e <xQueueGiveFromISR+0x5a>
 8000e9c:	2300      	movs	r3, #0
 8000e9e:	2b00      	cmp	r3, #0
 8000ea0:	d109      	bne.n	8000eb6 <xQueueGiveFromISR+0x72>
 8000ea2:	f04f 0310 	mov.w	r3, #16
 8000ea6:	f383 8811 	msr	BASEPRI, r3
 8000eaa:	f3bf 8f6f 	isb	sy
 8000eae:	f3bf 8f4f 	dsb	sy
 8000eb2:	61bb      	str	r3, [r7, #24]
 8000eb4:	e7fe      	b.n	8000eb4 <xQueueGiveFromISR+0x70>
 8000eb6:	f003 fb53 	bl	8004560 <vPortValidateInterruptPriority>
 8000eba:	f3ef 8211 	mrs	r2, BASEPRI
 8000ebe:	f04f 0310 	mov.w	r3, #16
 8000ec2:	f383 8811 	msr	BASEPRI, r3
 8000ec6:	f3bf 8f6f 	isb	sy
 8000eca:	f3bf 8f4f 	dsb	sy
 8000ece:	617a      	str	r2, [r7, #20]
 8000ed0:	613b      	str	r3, [r7, #16]
 8000ed2:	697b      	ldr	r3, [r7, #20]
 8000ed4:	627b      	str	r3, [r7, #36]	; 0x24
 8000ed6:	6abb      	ldr	r3, [r7, #40]	; 0x28
 8000ed8:	6b9a      	ldr	r2, [r3, #56]	; 0x38
 8000eda:	6abb      	ldr	r3, [r7, #40]	; 0x28
 8000edc:	6bdb      	ldr	r3, [r3, #60]	; 0x3c
 8000ede:	429a      	cmp	r2, r3
 8000ee0:	d224      	bcs.n	8000f2c <xQueueGiveFromISR+0xe8>
 8000ee2:	6abb      	ldr	r3, [r7, #40]	; 0x28
 8000ee4:	6b9b      	ldr	r3, [r3, #56]	; 0x38
 8000ee6:	1c5a      	adds	r2, r3, #1
 8000ee8:	6abb      	ldr	r3, [r7, #40]	; 0x28
 8000eea:	639a      	str	r2, [r3, #56]	; 0x38
 8000eec:	6abb      	ldr	r3, [r7, #40]	; 0x28
 8000eee:	6c9b      	ldr	r3, [r3, #72]	; 0x48
 8000ef0:	f1b3 3fff 	cmp.w	r3, #4294967295	; 0xffffffff
 8000ef4:	d112      	bne.n	8000f1c <xQueueGiveFromISR+0xd8>
 8000ef6:	6abb      	ldr	r3, [r7, #40]	; 0x28
 8000ef8:	6a5b      	ldr	r3, [r3, #36]	; 0x24
 8000efa:	2b00      	cmp	r3, #0
 8000efc:	d013      	beq.n	8000f26 <xQueueGiveFromISR+0xe2>
 8000efe:	6abb      	ldr	r3, [r7, #40]	; 0x28
 8000f00:	3324      	adds	r3, #36	; 0x24
 8000f02:	4618      	mov	r0, r3
 8000f04:	f001 fd0e 	bl	8002924 <xTaskRemoveFromEventList>
 8000f08:	4603      	mov	r3, r0
 8000f0a:	2b00      	cmp	r3, #0
 8000f0c:	d00b      	beq.n	8000f26 <xQueueGiveFromISR+0xe2>
 8000f0e:	683b      	ldr	r3, [r7, #0]
 8000f10:	2b00      	cmp	r3, #0
 8000f12:	d008      	beq.n	8000f26 <xQueueGiveFromISR+0xe2>
 8000f14:	683b      	ldr	r3, [r7, #0]
 8000f16:	2201      	movs	r2, #1
 8000f18:	601a      	str	r2, [r3, #0]
 8000f1a:	e004      	b.n	8000f26 <xQueueGiveFromISR+0xe2>
 8000f1c:	6abb      	ldr	r3, [r7, #40]	; 0x28
 8000f1e:	6c9b      	ldr	r3, [r3, #72]	; 0x48
 8000f20:	1c5a      	adds	r2, r3, #1
 8000f22:	6abb      	ldr	r3, [r7, #40]	; 0x28
 8000f24:	649a      	str	r2, [r3, #72]	; 0x48
 8000f26:	2301      	movs	r3, #1
 8000f28:	62fb      	str	r3, [r7, #44]	; 0x2c
 8000f2a:	e001      	b.n	8000f30 <xQueueGiveFromISR+0xec>
 8000f2c:	2300      	movs	r3, #0
 8000f2e:	62fb      	str	r3, [r7, #44]	; 0x2c
 8000f30:	6a7b      	ldr	r3, [r7, #36]	; 0x24
 8000f32:	60fb      	str	r3, [r7, #12]
 8000f34:	68fb      	ldr	r3, [r7, #12]
 8000f36:	f383 8811 	msr	BASEPRI, r3
 8000f3a:	6afb      	ldr	r3, [r7, #44]	; 0x2c
 8000f3c:	4618      	mov	r0, r3
 8000f3e:	3730      	adds	r7, #48	; 0x30
 8000f40:	46bd      	mov	sp, r7
 8000f42:	bd80      	pop	{r7, pc}

08000f44 <xQueueGenericReceive>:
 8000f44:	b580      	push	{r7, lr}
 8000f46:	b08c      	sub	sp, #48	; 0x30
 8000f48:	af00      	add	r7, sp, #0
 8000f4a:	60f8      	str	r0, [r7, #12]
 8000f4c:	60b9      	str	r1, [r7, #8]
 8000f4e:	607a      	str	r2, [r7, #4]
 8000f50:	603b      	str	r3, [r7, #0]
 8000f52:	2300      	movs	r3, #0
 8000f54:	62fb      	str	r3, [r7, #44]	; 0x2c
 8000f56:	68fb      	ldr	r3, [r7, #12]
 8000f58:	62bb      	str	r3, [r7, #40]	; 0x28
 8000f5a:	6abb      	ldr	r3, [r7, #40]	; 0x28
 8000f5c:	2b00      	cmp	r3, #0
 8000f5e:	d109      	bne.n	8000f74 <xQueueGenericReceive+0x30>
 8000f60:	f04f 0310 	mov.w	r3, #16
 8000f64:	f383 8811 	msr	BASEPRI, r3
 8000f68:	f3bf 8f6f 	isb	sy
 8000f6c:	f3bf 8f4f 	dsb	sy
 8000f70:	623b      	str	r3, [r7, #32]
 8000f72:	e7fe      	b.n	8000f72 <xQueueGenericReceive+0x2e>
 8000f74:	68bb      	ldr	r3, [r7, #8]
 8000f76:	2b00      	cmp	r3, #0
 8000f78:	d103      	bne.n	8000f82 <xQueueGenericReceive+0x3e>
 8000f7a:	6abb      	ldr	r3, [r7, #40]	; 0x28
 8000f7c:	6c1b      	ldr	r3, [r3, #64]	; 0x40
 8000f7e:	2b00      	cmp	r3, #0
 8000f80:	d101      	bne.n	8000f86 <xQueueGenericReceive+0x42>
 8000f82:	2301      	movs	r3, #1
 8000f84:	e000      	b.n	8000f88 <xQueueGenericReceive+0x44>
 8000f86:	2300      	movs	r3, #0
 8000f88:	2b00      	cmp	r3, #0
 8000f8a:	d109      	bne.n	8000fa0 <xQueueGenericReceive+0x5c>
 8000f8c:	f04f 0310 	mov.w	r3, #16
 8000f90:	f383 8811 	msr	BASEPRI, r3
 8000f94:	f3bf 8f6f 	isb	sy
 8000f98:	f3bf 8f4f 	dsb	sy
 8000f9c:	61fb      	str	r3, [r7, #28]
 8000f9e:	e7fe      	b.n	8000f9e <xQueueGenericReceive+0x5a>
 8000fa0:	f002 f86e 	bl	8003080 <xTaskGetSchedulerState>
 8000fa4:	4603      	mov	r3, r0
 8000fa6:	2b00      	cmp	r3, #0
 8000fa8:	d102      	bne.n	8000fb0 <xQueueGenericReceive+0x6c>
 8000faa:	687b      	ldr	r3, [r7, #4]
 8000fac:	2b00      	cmp	r3, #0
 8000fae:	d101      	bne.n	8000fb4 <xQueueGenericReceive+0x70>
 8000fb0:	2301      	movs	r3, #1
 8000fb2:	e000      	b.n	8000fb6 <xQueueGenericReceive+0x72>
 8000fb4:	2300      	movs	r3, #0
 8000fb6:	2b00      	cmp	r3, #0
 8000fb8:	d109      	bne.n	8000fce <xQueueGenericReceive+0x8a>
 8000fba:	f04f 0310 	mov.w	r3, #16
 8000fbe:	f383 8811 	msr	BASEPRI, r3
 8000fc2:	f3bf 8f6f 	isb	sy
 8000fc6:	f3bf 8f4f 	dsb	sy
 8000fca:	61bb      	str	r3, [r7, #24]
 8000fcc:	e7fe      	b.n	8000fcc <xQueueGenericReceive+0x88>
 8000fce:	f003 f9f9 	bl	80043c4 <vPortEnterCritical>
 8000fd2:	6abb      	ldr	r3, [r7, #40]	; 0x28
 8000fd4:	6b9b      	ldr	r3, [r3, #56]	; 0x38
 8000fd6:	2b00      	cmp	r3, #0
 8000fd8:	d047      	beq.n	800106a <xQueueGenericReceive+0x126>
 8000fda:	6abb      	ldr	r3, [r7, #40]	; 0x28
 8000fdc:	68db      	ldr	r3, [r3, #12]
 8000fde:	627b      	str	r3, [r7, #36]	; 0x24
 8000fe0:	68b9      	ldr	r1, [r7, #8]
 8000fe2:	6ab8      	ldr	r0, [r7, #40]	; 0x28
 8000fe4:	f000 fa94 	bl	8001510 <prvCopyDataFromQueue>
 8000fe8:	683b      	ldr	r3, [r7, #0]
 8000fea:	2b00      	cmp	r3, #0
 8000fec:	d122      	bne.n	8001034 <xQueueGenericReceive+0xf0>
 8000fee:	6abb      	ldr	r3, [r7, #40]	; 0x28
 8000ff0:	6b9b      	ldr	r3, [r3, #56]	; 0x38
 8000ff2:	1e5a      	subs	r2, r3, #1
 8000ff4:	6abb      	ldr	r3, [r7, #40]	; 0x28
 8000ff6:	639a      	str	r2, [r3, #56]	; 0x38
 8000ff8:	6abb      	ldr	r3, [r7, #40]	; 0x28
 8000ffa:	681b      	ldr	r3, [r3, #0]
 8000ffc:	2b00      	cmp	r3, #0
 8000ffe:	d104      	bne.n	800100a <xQueueGenericReceive+0xc6>
 8001000:	f002 fa12 	bl	8003428 <pvTaskIncrementMutexHeldCount>
 8001004:	4602      	mov	r2, r0
 8001006:	6abb      	ldr	r3, [r7, #40]	; 0x28
 8001008:	605a      	str	r2, [r3, #4]
 800100a:	6abb      	ldr	r3, [r7, #40]	; 0x28
 800100c:	691b      	ldr	r3, [r3, #16]
 800100e:	2b00      	cmp	r3, #0
 8001010:	d027      	beq.n	8001062 <xQueueGenericReceive+0x11e>
 8001012:	6abb      	ldr	r3, [r7, #40]	; 0x28
 8001014:	3310      	adds	r3, #16
 8001016:	4618      	mov	r0, r3
 8001018:	f001 fc84 	bl	8002924 <xTaskRemoveFromEventList>
 800101c:	4603      	mov	r3, r0
 800101e:	2b01      	cmp	r3, #1
 8001020:	d11f      	bne.n	8001062 <xQueueGenericReceive+0x11e>
 8001022:	4b49      	ldr	r3, [pc, #292]	; (8001148 <xQueueGenericReceive+0x204>)
 8001024:	f04f 5280 	mov.w	r2, #268435456	; 0x10000000
 8001028:	601a      	str	r2, [r3, #0]
 800102a:	f3bf 8f4f 	dsb	sy
 800102e:	f3bf 8f6f 	isb	sy
 8001032:	e016      	b.n	8001062 <xQueueGenericReceive+0x11e>
 8001034:	6abb      	ldr	r3, [r7, #40]	; 0x28
 8001036:	6a7a      	ldr	r2, [r7, #36]	; 0x24
 8001038:	60da      	str	r2, [r3, #12]
 800103a:	6abb      	ldr	r3, [r7, #40]	; 0x28
 800103c:	6a5b      	ldr	r3, [r3, #36]	; 0x24
 800103e:	2b00      	cmp	r3, #0
 8001040:	d00f      	beq.n	8001062 <xQueueGenericReceive+0x11e>
 8001042:	6abb      	ldr	r3, [r7, #40]	; 0x28
 8001044:	3324      	adds	r3, #36	; 0x24
 8001046:	4618      	mov	r0, r3
 8001048:	f001 fc6c 	bl	8002924 <xTaskRemoveFromEventList>
 800104c:	4603      	mov	r3, r0
 800104e:	2b00      	cmp	r3, #0
 8001050:	d007      	beq.n	8001062 <xQueueGenericReceive+0x11e>
 8001052:	4b3d      	ldr	r3, [pc, #244]	; (8001148 <xQueueGenericReceive+0x204>)
 8001054:	f04f 5280 	mov.w	r2, #268435456	; 0x10000000
 8001058:	601a      	str	r2, [r3, #0]
 800105a:	f3bf 8f4f 	dsb	sy
 800105e:	f3bf 8f6f 	isb	sy
 8001062:	f003 f9dd 	bl	8004420 <vPortExitCritical>
 8001066:	2301      	movs	r3, #1
 8001068:	e06a      	b.n	8001140 <xQueueGenericReceive+0x1fc>
 800106a:	687b      	ldr	r3, [r7, #4]
 800106c:	2b00      	cmp	r3, #0
 800106e:	d103      	bne.n	8001078 <xQueueGenericReceive+0x134>
 8001070:	f003 f9d6 	bl	8004420 <vPortExitCritical>
 8001074:	2300      	movs	r3, #0
 8001076:	e063      	b.n	8001140 <xQueueGenericReceive+0x1fc>
 8001078:	6afb      	ldr	r3, [r7, #44]	; 0x2c
 800107a:	2b00      	cmp	r3, #0
 800107c:	d106      	bne.n	800108c <xQueueGenericReceive+0x148>
 800107e:	f107 0310 	add.w	r3, r7, #16
 8001082:	4618      	mov	r0, r3
 8001084:	f001 fd16 	bl	8002ab4 <vTaskSetTimeOutState>
 8001088:	2301      	movs	r3, #1
 800108a:	62fb      	str	r3, [r7, #44]	; 0x2c
 800108c:	f003 f9c8 	bl	8004420 <vPortExitCritical>
 8001090:	f001 f8b8 	bl	8002204 <vTaskSuspendAll>
 8001094:	f003 f996 	bl	80043c4 <vPortEnterCritical>
 8001098:	6abb      	ldr	r3, [r7, #40]	; 0x28
 800109a:	6c5b      	ldr	r3, [r3, #68]	; 0x44
 800109c:	f1b3 3fff 	cmp.w	r3, #4294967295	; 0xffffffff
 80010a0:	d102      	bne.n	80010a8 <xQueueGenericReceive+0x164>
 80010a2:	6abb      	ldr	r3, [r7, #40]	; 0x28
 80010a4:	2200      	movs	r2, #0
 80010a6:	645a      	str	r2, [r3, #68]	; 0x44
 80010a8:	6abb      	ldr	r3, [r7, #40]	; 0x28
 80010aa:	6c9b      	ldr	r3, [r3, #72]	; 0x48
 80010ac:	f1b3 3fff 	cmp.w	r3, #4294967295	; 0xffffffff
 80010b0:	d102      	bne.n	80010b8 <xQueueGenericReceive+0x174>
 80010b2:	6abb      	ldr	r3, [r7, #40]	; 0x28
 80010b4:	2200      	movs	r2, #0
 80010b6:	649a      	str	r2, [r3, #72]	; 0x48
 80010b8:	f003 f9b2 	bl	8004420 <vPortExitCritical>
 80010bc:	1d3a      	adds	r2, r7, #4
 80010be:	f107 0310 	add.w	r3, r7, #16
 80010c2:	4611      	mov	r1, r2
 80010c4:	4618      	mov	r0, r3
 80010c6:	f001 fd19 	bl	8002afc <xTaskCheckForTimeOut>
 80010ca:	4603      	mov	r3, r0
 80010cc:	2b00      	cmp	r3, #0
 80010ce:	d131      	bne.n	8001134 <xQueueGenericReceive+0x1f0>
 80010d0:	6ab8      	ldr	r0, [r7, #40]	; 0x28
 80010d2:	f000 fa8f 	bl	80015f4 <prvIsQueueEmpty>
 80010d6:	4603      	mov	r3, r0
 80010d8:	2b00      	cmp	r3, #0
 80010da:	d025      	beq.n	8001128 <xQueueGenericReceive+0x1e4>
 80010dc:	6abb      	ldr	r3, [r7, #40]	; 0x28
 80010de:	681b      	ldr	r3, [r3, #0]
 80010e0:	2b00      	cmp	r3, #0
 80010e2:	d108      	bne.n	80010f6 <xQueueGenericReceive+0x1b2>
 80010e4:	f003 f96e 	bl	80043c4 <vPortEnterCritical>
 80010e8:	6abb      	ldr	r3, [r7, #40]	; 0x28
 80010ea:	685b      	ldr	r3, [r3, #4]
 80010ec:	4618      	mov	r0, r3
 80010ee:	f001 ffe5 	bl	80030bc <vTaskPriorityInherit>
 80010f2:	f003 f995 	bl	8004420 <vPortExitCritical>
 80010f6:	6abb      	ldr	r3, [r7, #40]	; 0x28
 80010f8:	3324      	adds	r3, #36	; 0x24
 80010fa:	687a      	ldr	r2, [r7, #4]
 80010fc:	4611      	mov	r1, r2
 80010fe:	4618      	mov	r0, r3
 8001100:	f001 fb0e 	bl	8002720 <vTaskPlaceOnEventList>
 8001104:	6ab8      	ldr	r0, [r7, #40]	; 0x28
 8001106:	f000 fa29 	bl	800155c <prvUnlockQueue>
 800110a:	f001 f889 	bl	8002220 <xTaskResumeAll>
 800110e:	4603      	mov	r3, r0
 8001110:	2b00      	cmp	r3, #0
 8001112:	f47f af5c 	bne.w	8000fce <xQueueGenericReceive+0x8a>
 8001116:	4b0c      	ldr	r3, [pc, #48]	; (8001148 <xQueueGenericReceive+0x204>)
 8001118:	f04f 5280 	mov.w	r2, #268435456	; 0x10000000
 800111c:	601a      	str	r2, [r3, #0]
 800111e:	f3bf 8f4f 	dsb	sy
 8001122:	f3bf 8f6f 	isb	sy
 8001126:	e752      	b.n	8000fce <xQueueGenericReceive+0x8a>
 8001128:	6ab8      	ldr	r0, [r7, #40]	; 0x28
 800112a:	f000 fa17 	bl	800155c <prvUnlockQueue>
 800112e:	f001 f877 	bl	8002220 <xTaskResumeAll>
 8001132:	e74c      	b.n	8000fce <xQueueGenericReceive+0x8a>
 8001134:	6ab8      	ldr	r0, [r7, #40]	; 0x28
 8001136:	f000 fa11 	bl	800155c <prvUnlockQueue>
 800113a:	f001 f871 	bl	8002220 <xTaskResumeAll>
 800113e:	2300      	movs	r3, #0
 8001140:	4618      	mov	r0, r3
 8001142:	3730      	adds	r7, #48	; 0x30
 8001144:	46bd      	mov	sp, r7
 8001146:	bd80      	pop	{r7, pc}
 8001148:	e000ed04 	and	lr, r0, r4, lsl #26

0800114c <xQueueReceiveFromISR>:
 800114c:	b580      	push	{r7, lr}
 800114e:	b08c      	sub	sp, #48	; 0x30
 8001150:	af00      	add	r7, sp, #0
 8001152:	60f8      	str	r0, [r7, #12]
 8001154:	60b9      	str	r1, [r7, #8]
 8001156:	607a      	str	r2, [r7, #4]
 8001158:	68fb      	ldr	r3, [r7, #12]
 800115a:	62bb      	str	r3, [r7, #40]	; 0x28
 800115c:	6abb      	ldr	r3, [r7, #40]	; 0x28
 800115e:	2b00      	cmp	r3, #0
 8001160:	d109      	bne.n	8001176 <xQueueReceiveFromISR+0x2a>
 8001162:	f04f 0310 	mov.w	r3, #16
 8001166:	f383 8811 	msr	BASEPRI, r3
 800116a:	f3bf 8f6f 	isb	sy
 800116e:	f3bf 8f4f 	dsb	sy
 8001172:	623b      	str	r3, [r7, #32]
 8001174:	e7fe      	b.n	8001174 <xQueueReceiveFromISR+0x28>
 8001176:	68bb      	ldr	r3, [r7, #8]
 8001178:	2b00      	cmp	r3, #0
 800117a:	d103      	bne.n	8001184 <xQueueReceiveFromISR+0x38>
 800117c:	6abb      	ldr	r3, [r7, #40]	; 0x28
 800117e:	6c1b      	ldr	r3, [r3, #64]	; 0x40
 8001180:	2b00      	cmp	r3, #0
 8001182:	d101      	bne.n	8001188 <xQueueReceiveFromISR+0x3c>
 8001184:	2301      	movs	r3, #1
 8001186:	e000      	b.n	800118a <xQueueReceiveFromISR+0x3e>
 8001188:	2300      	movs	r3, #0
 800118a:	2b00      	cmp	r3, #0
 800118c:	d109      	bne.n	80011a2 <xQueueReceiveFromISR+0x56>
 800118e:	f04f 0310 	mov.w	r3, #16
 8001192:	f383 8811 	msr	BASEPRI, r3
 8001196:	f3bf 8f6f 	isb	sy
 800119a:	f3bf 8f4f 	dsb	sy
 800119e:	61fb      	str	r3, [r7, #28]
 80011a0:	e7fe      	b.n	80011a0 <xQueueReceiveFromISR+0x54>
 80011a2:	f003 f9dd 	bl	8004560 <vPortValidateInterruptPriority>
 80011a6:	f3ef 8211 	mrs	r2, BASEPRI
 80011aa:	f04f 0310 	mov.w	r3, #16
 80011ae:	f383 8811 	msr	BASEPRI, r3
 80011b2:	f3bf 8f6f 	isb	sy
 80011b6:	f3bf 8f4f 	dsb	sy
 80011ba:	61ba      	str	r2, [r7, #24]
 80011bc:	617b      	str	r3, [r7, #20]
 80011be:	69bb      	ldr	r3, [r7, #24]
 80011c0:	627b      	str	r3, [r7, #36]	; 0x24
 80011c2:	6abb      	ldr	r3, [r7, #40]	; 0x28
 80011c4:	6b9b      	ldr	r3, [r3, #56]	; 0x38
 80011c6:	2b00      	cmp	r3, #0
 80011c8:	d028      	beq.n	800121c <xQueueReceiveFromISR+0xd0>
 80011ca:	68b9      	ldr	r1, [r7, #8]
 80011cc:	6ab8      	ldr	r0, [r7, #40]	; 0x28
 80011ce:	f000 f99f 	bl	8001510 <prvCopyDataFromQueue>
 80011d2:	6abb      	ldr	r3, [r7, #40]	; 0x28
 80011d4:	6b9b      	ldr	r3, [r3, #56]	; 0x38
 80011d6:	1e5a      	subs	r2, r3, #1
 80011d8:	6abb      	ldr	r3, [r7, #40]	; 0x28
 80011da:	639a      	str	r2, [r3, #56]	; 0x38
 80011dc:	6abb      	ldr	r3, [r7, #40]	; 0x28
 80011de:	6c5b      	ldr	r3, [r3, #68]	; 0x44
 80011e0:	f1b3 3fff 	cmp.w	r3, #4294967295	; 0xffffffff
 80011e4:	d112      	bne.n	800120c <xQueueReceiveFromISR+0xc0>
 80011e6:	6abb      	ldr	r3, [r7, #40]	; 0x28
 80011e8:	691b      	ldr	r3, [r3, #16]
 80011ea:	2b00      	cmp	r3, #0
 80011ec:	d013      	beq.n	8001216 <xQueueReceiveFromISR+0xca>
 80011ee:	6abb      	ldr	r3, [r7, #40]	; 0x28
 80011f0:	3310      	adds	r3, #16
 80011f2:	4618      	mov	r0, r3
 80011f4:	f001 fb96 	bl	8002924 <xTaskRemoveFromEventList>
 80011f8:	4603      	mov	r3, r0
 80011fa:	2b00      	cmp	r3, #0
 80011fc:	d00b      	beq.n	8001216 <xQueueReceiveFromISR+0xca>
 80011fe:	687b      	ldr	r3, [r7, #4]
 8001200:	2b00      	cmp	r3, #0
 8001202:	d008      	beq.n	8001216 <xQueueReceiveFromISR+0xca>
 8001204:	687b      	ldr	r3, [r7, #4]
 8001206:	2201      	movs	r2, #1
 8001208:	601a      	str	r2, [r3, #0]
 800120a:	e004      	b.n	8001216 <xQueueReceiveFromISR+0xca>
 800120c:	6abb      	ldr	r3, [r7, #40]	; 0x28
 800120e:	6c5b      	ldr	r3, [r3, #68]	; 0x44
 8001210:	1c5a      	adds	r2, r3, #1
 8001212:	6abb      	ldr	r3, [r7, #40]	; 0x28
 8001214:	645a      	str	r2, [r3, #68]	; 0x44
 8001216:	2301      	movs	r3, #1
 8001218:	62fb      	str	r3, [r7, #44]	; 0x2c
 800121a:	e001      	b.n	8001220 <xQueueReceiveFromISR+0xd4>
 800121c:	2300      	movs	r3, #0
 800121e:	62fb      	str	r3, [r7, #44]	; 0x2c
 8001220:	6a7b      	ldr	r3, [r7, #36]	; 0x24
 8001222:	613b      	str	r3, [r7, #16]
 8001224:	693b      	ldr	r3, [r7, #16]
 8001226:	f383 8811 	msr	BASEPRI, r3
 800122a:	6afb      	ldr	r3, [r7, #44]	; 0x2c
 800122c:	4618      	mov	r0, r3
 800122e:	3730      	adds	r7, #48	; 0x30
 8001230:	46bd      	mov	sp, r7
 8001232:	bd80      	pop	{r7, pc}

08001234 <xQueuePeekFromISR>:
 8001234:	b580      	push	{r7, lr}
 8001236:	b08c      	sub	sp, #48	; 0x30
 8001238:	af00      	add	r7, sp, #0
 800123a:	6078      	str	r0, [r7, #4]
 800123c:	6039      	str	r1, [r7, #0]
 800123e:	687b      	ldr	r3, [r7, #4]
 8001240:	62bb      	str	r3, [r7, #40]	; 0x28
 8001242:	6abb      	ldr	r3, [r7, #40]	; 0x28
 8001244:	2b00      	cmp	r3, #0
 8001246:	d109      	bne.n	800125c <xQueuePeekFromISR+0x28>
 8001248:	f04f 0310 	mov.w	r3, #16
 800124c:	f383 8811 	msr	BASEPRI, r3
 8001250:	f3bf 8f6f 	isb	sy
 8001254:	f3bf 8f4f 	dsb	sy
 8001258:	61fb      	str	r3, [r7, #28]
 800125a:	e7fe      	b.n	800125a <xQueuePeekFromISR+0x26>
 800125c:	683b      	ldr	r3, [r7, #0]
 800125e:	2b00      	cmp	r3, #0
 8001260:	d103      	bne.n	800126a <xQueuePeekFromISR+0x36>
 8001262:	6abb      	ldr	r3, [r7, #40]	; 0x28
 8001264:	6c1b      	ldr	r3, [r3, #64]	; 0x40
 8001266:	2b00      	cmp	r3, #0
 8001268:	d101      	bne.n	800126e <xQueuePeekFromISR+0x3a>
 800126a:	2301      	movs	r3, #1
 800126c:	e000      	b.n	8001270 <xQueuePeekFromISR+0x3c>
 800126e:	2300      	movs	r3, #0
 8001270:	2b00      	cmp	r3, #0
 8001272:	d109      	bne.n	8001288 <xQueuePeekFromISR+0x54>
 8001274:	f04f 0310 	mov.w	r3, #16
 8001278:	f383 8811 	msr	BASEPRI, r3
 800127c:	f3bf 8f6f 	isb	sy
 8001280:	f3bf 8f4f 	dsb	sy
 8001284:	61bb      	str	r3, [r7, #24]
 8001286:	e7fe      	b.n	8001286 <xQueuePeekFromISR+0x52>
 8001288:	6abb      	ldr	r3, [r7, #40]	; 0x28
 800128a:	6c1b      	ldr	r3, [r3, #64]	; 0x40
 800128c:	2b00      	cmp	r3, #0
 800128e:	d109      	bne.n	80012a4 <xQueuePeekFromISR+0x70>
 8001290:	f04f 0310 	mov.w	r3, #16
 8001294:	f383 8811 	msr	BASEPRI, r3
 8001298:	f3bf 8f6f 	isb	sy
 800129c:	f3bf 8f4f 	dsb	sy
 80012a0:	617b      	str	r3, [r7, #20]
 80012a2:	e7fe      	b.n	80012a2 <xQueuePeekFromISR+0x6e>
 80012a4:	f003 f95c 	bl	8004560 <vPortValidateInterruptPriority>
 80012a8:	f3ef 8211 	mrs	r2, BASEPRI
 80012ac:	f04f 0310 	mov.w	r3, #16
 80012b0:	f383 8811 	msr	BASEPRI, r3
 80012b4:	f3bf 8f6f 	isb	sy
 80012b8:	f3bf 8f4f 	dsb	sy
 80012bc:	613a      	str	r2, [r7, #16]
 80012be:	60fb      	str	r3, [r7, #12]
 80012c0:	693b      	ldr	r3, [r7, #16]
 80012c2:	627b      	str	r3, [r7, #36]	; 0x24
 80012c4:	6abb      	ldr	r3, [r7, #40]	; 0x28
 80012c6:	6b9b      	ldr	r3, [r3, #56]	; 0x38
 80012c8:	2b00      	cmp	r3, #0
 80012ca:	d00c      	beq.n	80012e6 <xQueuePeekFromISR+0xb2>
 80012cc:	6abb      	ldr	r3, [r7, #40]	; 0x28
 80012ce:	68db      	ldr	r3, [r3, #12]
 80012d0:	623b      	str	r3, [r7, #32]
 80012d2:	6839      	ldr	r1, [r7, #0]
 80012d4:	6ab8      	ldr	r0, [r7, #40]	; 0x28
 80012d6:	f000 f91b 	bl	8001510 <prvCopyDataFromQueue>
 80012da:	6abb      	ldr	r3, [r7, #40]	; 0x28
 80012dc:	6a3a      	ldr	r2, [r7, #32]
 80012de:	60da      	str	r2, [r3, #12]
 80012e0:	2301      	movs	r3, #1
 80012e2:	62fb      	str	r3, [r7, #44]	; 0x2c
 80012e4:	e001      	b.n	80012ea <xQueuePeekFromISR+0xb6>
 80012e6:	2300      	movs	r3, #0
 80012e8:	62fb      	str	r3, [r7, #44]	; 0x2c
 80012ea:	6a7b      	ldr	r3, [r7, #36]	; 0x24
 80012ec:	60bb      	str	r3, [r7, #8]
 80012ee:	68bb      	ldr	r3, [r7, #8]
 80012f0:	f383 8811 	msr	BASEPRI, r3
 80012f4:	6afb      	ldr	r3, [r7, #44]	; 0x2c
 80012f6:	4618      	mov	r0, r3
 80012f8:	3730      	adds	r7, #48	; 0x30
 80012fa:	46bd      	mov	sp, r7
 80012fc:	bd80      	pop	{r7, pc}

080012fe <uxQueueMessagesWaiting>:
 80012fe:	b580      	push	{r7, lr}
 8001300:	b084      	sub	sp, #16
 8001302:	af00      	add	r7, sp, #0
 8001304:	6078      	str	r0, [r7, #4]
 8001306:	687b      	ldr	r3, [r7, #4]
 8001308:	2b00      	cmp	r3, #0
 800130a:	d109      	bne.n	8001320 <uxQueueMessagesWaiting+0x22>
 800130c:	f04f 0310 	mov.w	r3, #16
 8001310:	f383 8811 	msr	BASEPRI, r3
 8001314:	f3bf 8f6f 	isb	sy
 8001318:	f3bf 8f4f 	dsb	sy
 800131c:	60bb      	str	r3, [r7, #8]
 800131e:	e7fe      	b.n	800131e <uxQueueMessagesWaiting+0x20>
 8001320:	f003 f850 	bl	80043c4 <vPortEnterCritical>
 8001324:	687b      	ldr	r3, [r7, #4]
 8001326:	6b9b      	ldr	r3, [r3, #56]	; 0x38
 8001328:	60fb      	str	r3, [r7, #12]
 800132a:	f003 f879 	bl	8004420 <vPortExitCritical>
 800132e:	68fb      	ldr	r3, [r7, #12]
 8001330:	4618      	mov	r0, r3
 8001332:	3710      	adds	r7, #16
 8001334:	46bd      	mov	sp, r7
 8001336:	bd80      	pop	{r7, pc}

08001338 <uxQueueSpacesAvailable>:
 8001338:	b580      	push	{r7, lr}
 800133a:	b086      	sub	sp, #24
 800133c:	af00      	add	r7, sp, #0
 800133e:	6078      	str	r0, [r7, #4]
 8001340:	687b      	ldr	r3, [r7, #4]
 8001342:	617b      	str	r3, [r7, #20]
 8001344:	697b      	ldr	r3, [r7, #20]
 8001346:	2b00      	cmp	r3, #0
 8001348:	d109      	bne.n	800135e <uxQueueSpacesAvailable+0x26>
 800134a:	f04f 0310 	mov.w	r3, #16
 800134e:	f383 8811 	msr	BASEPRI, r3
 8001352:	f3bf 8f6f 	isb	sy
 8001356:	f3bf 8f4f 	dsb	sy
 800135a:	60fb      	str	r3, [r7, #12]
 800135c:	e7fe      	b.n	800135c <uxQueueSpacesAvailable+0x24>
 800135e:	f003 f831 	bl	80043c4 <vPortEnterCritical>
 8001362:	697b      	ldr	r3, [r7, #20]
 8001364:	6bda      	ldr	r2, [r3, #60]	; 0x3c
 8001366:	697b      	ldr	r3, [r7, #20]
 8001368:	6b9b      	ldr	r3, [r3, #56]	; 0x38
 800136a:	1ad3      	subs	r3, r2, r3
 800136c:	613b      	str	r3, [r7, #16]
 800136e:	f003 f857 	bl	8004420 <vPortExitCritical>
 8001372:	693b      	ldr	r3, [r7, #16]
 8001374:	4618      	mov	r0, r3
 8001376:	3718      	adds	r7, #24
 8001378:	46bd      	mov	sp, r7
 800137a:	bd80      	pop	{r7, pc}

0800137c <uxQueueMessagesWaitingFromISR>:
 800137c:	b480      	push	{r7}
 800137e:	b085      	sub	sp, #20
 8001380:	af00      	add	r7, sp, #0
 8001382:	6078      	str	r0, [r7, #4]
 8001384:	687b      	ldr	r3, [r7, #4]
 8001386:	2b00      	cmp	r3, #0
 8001388:	d109      	bne.n	800139e <uxQueueMessagesWaitingFromISR+0x22>
 800138a:	f04f 0310 	mov.w	r3, #16
 800138e:	f383 8811 	msr	BASEPRI, r3
 8001392:	f3bf 8f6f 	isb	sy
 8001396:	f3bf 8f4f 	dsb	sy
 800139a:	60bb      	str	r3, [r7, #8]
 800139c:	e7fe      	b.n	800139c <uxQueueMessagesWaitingFromISR+0x20>
 800139e:	687b      	ldr	r3, [r7, #4]
 80013a0:	6b9b      	ldr	r3, [r3, #56]	; 0x38
 80013a2:	60fb      	str	r3, [r7, #12]
 80013a4:	68fb      	ldr	r3, [r7, #12]
 80013a6:	4618      	mov	r0, r3
 80013a8:	3714      	adds	r7, #20
 80013aa:	46bd      	mov	sp, r7
 80013ac:	f85d 7b04 	ldr.w	r7, [sp], #4
 80013b0:	4770      	bx	lr

080013b2 <vQueueDelete>:
 80013b2:	b580      	push	{r7, lr}
 80013b4:	b084      	sub	sp, #16
 80013b6:	af00      	add	r7, sp, #0
 80013b8:	6078      	str	r0, [r7, #4]
 80013ba:	687b      	ldr	r3, [r7, #4]
 80013bc:	60fb      	str	r3, [r7, #12]
 80013be:	68fb      	ldr	r3, [r7, #12]
 80013c0:	2b00      	cmp	r3, #0
 80013c2:	d109      	bne.n	80013d8 <vQueueDelete+0x26>
 80013c4:	f04f 0310 	mov.w	r3, #16
 80013c8:	f383 8811 	msr	BASEPRI, r3
 80013cc:	f3bf 8f6f 	isb	sy
 80013d0:	f3bf 8f4f 	dsb	sy
 80013d4:	60bb      	str	r3, [r7, #8]
 80013d6:	e7fe      	b.n	80013d6 <vQueueDelete+0x24>
 80013d8:	68f8      	ldr	r0, [r7, #12]
 80013da:	f000 f9a5 	bl	8001728 <vQueueUnregisterQueue>
 80013de:	68f8      	ldr	r0, [r7, #12]
 80013e0:	f003 f9c2 	bl	8004768 <vPortFree>
 80013e4:	bf00      	nop
 80013e6:	3710      	adds	r7, #16
 80013e8:	46bd      	mov	sp, r7
 80013ea:	bd80      	pop	{r7, pc}

080013ec <uxQueueGetQueueNumber>:
 80013ec:	b480      	push	{r7}
 80013ee:	b083      	sub	sp, #12
 80013f0:	af00      	add	r7, sp, #0
 80013f2:	6078      	str	r0, [r7, #4]
 80013f4:	687b      	ldr	r3, [r7, #4]
 80013f6:	6cdb      	ldr	r3, [r3, #76]	; 0x4c
 80013f8:	4618      	mov	r0, r3
 80013fa:	370c      	adds	r7, #12
 80013fc:	46bd      	mov	sp, r7
 80013fe:	f85d 7b04 	ldr.w	r7, [sp], #4
 8001402:	4770      	bx	lr

08001404 <vQueueSetQueueNumber>:
 8001404:	b480      	push	{r7}
 8001406:	b083      	sub	sp, #12
 8001408:	af00      	add	r7, sp, #0
 800140a:	6078      	str	r0, [r7, #4]
 800140c:	6039      	str	r1, [r7, #0]
 800140e:	687b      	ldr	r3, [r7, #4]
 8001410:	683a      	ldr	r2, [r7, #0]
 8001412:	64da      	str	r2, [r3, #76]	; 0x4c
 8001414:	bf00      	nop
 8001416:	370c      	adds	r7, #12
 8001418:	46bd      	mov	sp, r7
 800141a:	f85d 7b04 	ldr.w	r7, [sp], #4
 800141e:	4770      	bx	lr

08001420 <ucQueueGetQueueType>:
 8001420:	b480      	push	{r7}
 8001422:	b083      	sub	sp, #12
 8001424:	af00      	add	r7, sp, #0
 8001426:	6078      	str	r0, [r7, #4]
 8001428:	687b      	ldr	r3, [r7, #4]
 800142a:	f893 3050 	ldrb.w	r3, [r3, #80]	; 0x50
 800142e:	4618      	mov	r0, r3
 8001430:	370c      	adds	r7, #12
 8001432:	46bd      	mov	sp, r7
 8001434:	f85d 7b04 	ldr.w	r7, [sp], #4
 8001438:	4770      	bx	lr

0800143a <prvCopyDataToQueue>:
 800143a:	b580      	push	{r7, lr}
 800143c:	b086      	sub	sp, #24
 800143e:	af00      	add	r7, sp, #0
 8001440:	60f8      	str	r0, [r7, #12]
 8001442:	60b9      	str	r1, [r7, #8]
 8001444:	607a      	str	r2, [r7, #4]
 8001446:	2300      	movs	r3, #0
 8001448:	617b      	str	r3, [r7, #20]
 800144a:	68fb      	ldr	r3, [r7, #12]
 800144c:	6c1b      	ldr	r3, [r3, #64]	; 0x40
 800144e:	2b00      	cmp	r3, #0
 8001450:	d10d      	bne.n	800146e <prvCopyDataToQueue+0x34>
 8001452:	68fb      	ldr	r3, [r7, #12]
 8001454:	681b      	ldr	r3, [r3, #0]
 8001456:	2b00      	cmp	r3, #0
 8001458:	d150      	bne.n	80014fc <prvCopyDataToQueue+0xc2>
 800145a:	68fb      	ldr	r3, [r7, #12]
 800145c:	685b      	ldr	r3, [r3, #4]
 800145e:	4618      	mov	r0, r3
 8001460:	f001 fea2 	bl	80031a8 <xTaskPriorityDisinherit>
 8001464:	6178      	str	r0, [r7, #20]
 8001466:	68fb      	ldr	r3, [r7, #12]
 8001468:	2200      	movs	r2, #0
 800146a:	605a      	str	r2, [r3, #4]
 800146c:	e046      	b.n	80014fc <prvCopyDataToQueue+0xc2>
 800146e:	687b      	ldr	r3, [r7, #4]
 8001470:	2b00      	cmp	r3, #0
 8001472:	d119      	bne.n	80014a8 <prvCopyDataToQueue+0x6e>
 8001474:	68fb      	ldr	r3, [r7, #12]
 8001476:	6898      	ldr	r0, [r3, #8]
 8001478:	68fb      	ldr	r3, [r7, #12]
 800147a:	6c1b      	ldr	r3, [r3, #64]	; 0x40
 800147c:	461a      	mov	r2, r3
 800147e:	68b9      	ldr	r1, [r7, #8]
 8001480:	f010 fac0 	bl	8011a04 <memcpy>
 8001484:	68fb      	ldr	r3, [r7, #12]
 8001486:	689a      	ldr	r2, [r3, #8]
 8001488:	68fb      	ldr	r3, [r7, #12]
 800148a:	6c1b      	ldr	r3, [r3, #64]	; 0x40
 800148c:	441a      	add	r2, r3
 800148e:	68fb      	ldr	r3, [r7, #12]
 8001490:	609a      	str	r2, [r3, #8]
 8001492:	68fb      	ldr	r3, [r7, #12]
 8001494:	689a      	ldr	r2, [r3, #8]
 8001496:	68fb      	ldr	r3, [r7, #12]
 8001498:	685b      	ldr	r3, [r3, #4]
 800149a:	429a      	cmp	r2, r3
 800149c:	d32e      	bcc.n	80014fc <prvCopyDataToQueue+0xc2>
 800149e:	68fb      	ldr	r3, [r7, #12]
 80014a0:	681a      	ldr	r2, [r3, #0]
 80014a2:	68fb      	ldr	r3, [r7, #12]
 80014a4:	609a      	str	r2, [r3, #8]
 80014a6:	e029      	b.n	80014fc <prvCopyDataToQueue+0xc2>
 80014a8:	68fb      	ldr	r3, [r7, #12]
 80014aa:	68d8      	ldr	r0, [r3, #12]
 80014ac:	68fb      	ldr	r3, [r7, #12]
 80014ae:	6c1b      	ldr	r3, [r3, #64]	; 0x40
 80014b0:	461a      	mov	r2, r3
 80014b2:	68b9      	ldr	r1, [r7, #8]
 80014b4:	f010 faa6 	bl	8011a04 <memcpy>
 80014b8:	68fb      	ldr	r3, [r7, #12]
 80014ba:	68da      	ldr	r2, [r3, #12]
 80014bc:	68fb      	ldr	r3, [r7, #12]
 80014be:	6c1b      	ldr	r3, [r3, #64]	; 0x40
 80014c0:	425b      	negs	r3, r3
 80014c2:	441a      	add	r2, r3
 80014c4:	68fb      	ldr	r3, [r7, #12]
 80014c6:	60da      	str	r2, [r3, #12]
 80014c8:	68fb      	ldr	r3, [r7, #12]
 80014ca:	68da      	ldr	r2, [r3, #12]
 80014cc:	68fb      	ldr	r3, [r7, #12]
 80014ce:	681b      	ldr	r3, [r3, #0]
 80014d0:	429a      	cmp	r2, r3
 80014d2:	d207      	bcs.n	80014e4 <prvCopyDataToQueue+0xaa>
 80014d4:	68fb      	ldr	r3, [r7, #12]
 80014d6:	685a      	ldr	r2, [r3, #4]
 80014d8:	68fb      	ldr	r3, [r7, #12]
 80014da:	6c1b      	ldr	r3, [r3, #64]	; 0x40
 80014dc:	425b      	negs	r3, r3
 80014de:	441a      	add	r2, r3
 80014e0:	68fb      	ldr	r3, [r7, #12]
 80014e2:	60da      	str	r2, [r3, #12]
 80014e4:	687b      	ldr	r3, [r7, #4]
 80014e6:	2b02      	cmp	r3, #2
 80014e8:	d108      	bne.n	80014fc <prvCopyDataToQueue+0xc2>
 80014ea:	68fb      	ldr	r3, [r7, #12]
 80014ec:	6b9b      	ldr	r3, [r3, #56]	; 0x38
 80014ee:	2b00      	cmp	r3, #0
 80014f0:	d004      	beq.n	80014fc <prvCopyDataToQueue+0xc2>
 80014f2:	68fb      	ldr	r3, [r7, #12]
 80014f4:	6b9b      	ldr	r3, [r3, #56]	; 0x38
 80014f6:	1e5a      	subs	r2, r3, #1
 80014f8:	68fb      	ldr	r3, [r7, #12]
 80014fa:	639a      	str	r2, [r3, #56]	; 0x38
 80014fc:	68fb      	ldr	r3, [r7, #12]
 80014fe:	6b9b      	ldr	r3, [r3, #56]	; 0x38
 8001500:	1c5a      	adds	r2, r3, #1
 8001502:	68fb      	ldr	r3, [r7, #12]
 8001504:	639a      	str	r2, [r3, #56]	; 0x38
 8001506:	697b      	ldr	r3, [r7, #20]
 8001508:	4618      	mov	r0, r3
 800150a:	3718      	adds	r7, #24
 800150c:	46bd      	mov	sp, r7
 800150e:	bd80      	pop	{r7, pc}

08001510 <prvCopyDataFromQueue>:
 8001510:	b580      	push	{r7, lr}
 8001512:	b082      	sub	sp, #8
 8001514:	af00      	add	r7, sp, #0
 8001516:	6078      	str	r0, [r7, #4]
 8001518:	6039      	str	r1, [r7, #0]
 800151a:	687b      	ldr	r3, [r7, #4]
 800151c:	6c1b      	ldr	r3, [r3, #64]	; 0x40
 800151e:	2b00      	cmp	r3, #0
 8001520:	d018      	beq.n	8001554 <prvCopyDataFromQueue+0x44>
 8001522:	687b      	ldr	r3, [r7, #4]
 8001524:	68da      	ldr	r2, [r3, #12]
 8001526:	687b      	ldr	r3, [r7, #4]
 8001528:	6c1b      	ldr	r3, [r3, #64]	; 0x40
 800152a:	441a      	add	r2, r3
 800152c:	687b      	ldr	r3, [r7, #4]
 800152e:	60da      	str	r2, [r3, #12]
 8001530:	687b      	ldr	r3, [r7, #4]
 8001532:	68da      	ldr	r2, [r3, #12]
 8001534:	687b      	ldr	r3, [r7, #4]
 8001536:	685b      	ldr	r3, [r3, #4]
 8001538:	429a      	cmp	r2, r3
 800153a:	d303      	bcc.n	8001544 <prvCopyDataFromQueue+0x34>
 800153c:	687b      	ldr	r3, [r7, #4]
 800153e:	681a      	ldr	r2, [r3, #0]
 8001540:	687b      	ldr	r3, [r7, #4]
 8001542:	60da      	str	r2, [r3, #12]
 8001544:	687b      	ldr	r3, [r7, #4]
 8001546:	68d9      	ldr	r1, [r3, #12]
 8001548:	687b      	ldr	r3, [r7, #4]
 800154a:	6c1b      	ldr	r3, [r3, #64]	; 0x40
 800154c:	461a      	mov	r2, r3
 800154e:	6838      	ldr	r0, [r7, #0]
 8001550:	f010 fa58 	bl	8011a04 <memcpy>
 8001554:	bf00      	nop
 8001556:	3708      	adds	r7, #8
 8001558:	46bd      	mov	sp, r7
 800155a:	bd80      	pop	{r7, pc}

0800155c <prvUnlockQueue>:
 800155c:	b580      	push	{r7, lr}
 800155e:	b082      	sub	sp, #8
 8001560:	af00      	add	r7, sp, #0
 8001562:	6078      	str	r0, [r7, #4]
 8001564:	f002 ff2e 	bl	80043c4 <vPortEnterCritical>
 8001568:	e012      	b.n	8001590 <prvUnlockQueue+0x34>
 800156a:	687b      	ldr	r3, [r7, #4]
 800156c:	6a5b      	ldr	r3, [r3, #36]	; 0x24
 800156e:	2b00      	cmp	r3, #0
 8001570:	d013      	beq.n	800159a <prvUnlockQueue+0x3e>
 8001572:	687b      	ldr	r3, [r7, #4]
 8001574:	3324      	adds	r3, #36	; 0x24
 8001576:	4618      	mov	r0, r3
 8001578:	f001 f9d4 	bl	8002924 <xTaskRemoveFromEventList>
 800157c:	4603      	mov	r3, r0
 800157e:	2b00      	cmp	r3, #0
 8001580:	d001      	beq.n	8001586 <prvUnlockQueue+0x2a>
 8001582:	f001 fb19 	bl	8002bb8 <vTaskMissedYield>
 8001586:	687b      	ldr	r3, [r7, #4]
 8001588:	6c9b      	ldr	r3, [r3, #72]	; 0x48
 800158a:	1e5a      	subs	r2, r3, #1
 800158c:	687b      	ldr	r3, [r7, #4]
 800158e:	649a      	str	r2, [r3, #72]	; 0x48
 8001590:	687b      	ldr	r3, [r7, #4]
 8001592:	6c9b      	ldr	r3, [r3, #72]	; 0x48
 8001594:	2b00      	cmp	r3, #0
 8001596:	dce8      	bgt.n	800156a <prvUnlockQueue+0xe>
 8001598:	e000      	b.n	800159c <prvUnlockQueue+0x40>
 800159a:	bf00      	nop
 800159c:	687b      	ldr	r3, [r7, #4]
 800159e:	f04f 32ff 	mov.w	r2, #4294967295	; 0xffffffff
 80015a2:	649a      	str	r2, [r3, #72]	; 0x48
 80015a4:	f002 ff3c 	bl	8004420 <vPortExitCritical>
 80015a8:	f002 ff0c 	bl	80043c4 <vPortEnterCritical>
 80015ac:	e012      	b.n	80015d4 <prvUnlockQueue+0x78>
 80015ae:	687b      	ldr	r3, [r7, #4]
 80015b0:	691b      	ldr	r3, [r3, #16]
 80015b2:	2b00      	cmp	r3, #0
 80015b4:	d013      	beq.n	80015de <prvUnlockQueue+0x82>
 80015b6:	687b      	ldr	r3, [r7, #4]
 80015b8:	3310      	adds	r3, #16
 80015ba:	4618      	mov	r0, r3
 80015bc:	f001 f9b2 	bl	8002924 <xTaskRemoveFromEventList>
 80015c0:	4603      	mov	r3, r0
 80015c2:	2b00      	cmp	r3, #0
 80015c4:	d001      	beq.n	80015ca <prvUnlockQueue+0x6e>
 80015c6:	f001 faf7 	bl	8002bb8 <vTaskMissedYield>
 80015ca:	687b      	ldr	r3, [r7, #4]
 80015cc:	6c5b      	ldr	r3, [r3, #68]	; 0x44
 80015ce:	1e5a      	subs	r2, r3, #1
 80015d0:	687b      	ldr	r3, [r7, #4]
 80015d2:	645a      	str	r2, [r3, #68]	; 0x44
 80015d4:	687b      	ldr	r3, [r7, #4]
 80015d6:	6c5b      	ldr	r3, [r3, #68]	; 0x44
 80015d8:	2b00      	cmp	r3, #0
 80015da:	dce8      	bgt.n	80015ae <prvUnlockQueue+0x52>
 80015dc:	e000      	b.n	80015e0 <prvUnlockQueue+0x84>
 80015de:	bf00      	nop
 80015e0:	687b      	ldr	r3, [r7, #4]
 80015e2:	f04f 32ff 	mov.w	r2, #4294967295	; 0xffffffff
 80015e6:	645a      	str	r2, [r3, #68]	; 0x44
 80015e8:	f002 ff1a 	bl	8004420 <vPortExitCritical>
 80015ec:	bf00      	nop
 80015ee:	3708      	adds	r7, #8
 80015f0:	46bd      	mov	sp, r7
 80015f2:	bd80      	pop	{r7, pc}

080015f4 <prvIsQueueEmpty>:
 80015f4:	b580      	push	{r7, lr}
 80015f6:	b084      	sub	sp, #16
 80015f8:	af00      	add	r7, sp, #0
 80015fa:	6078      	str	r0, [r7, #4]
 80015fc:	f002 fee2 	bl	80043c4 <vPortEnterCritical>
 8001600:	687b      	ldr	r3, [r7, #4]
 8001602:	6b9b      	ldr	r3, [r3, #56]	; 0x38
 8001604:	2b00      	cmp	r3, #0
 8001606:	d102      	bne.n	800160e <prvIsQueueEmpty+0x1a>
 8001608:	2301      	movs	r3, #1
 800160a:	60fb      	str	r3, [r7, #12]
 800160c:	e001      	b.n	8001612 <prvIsQueueEmpty+0x1e>
 800160e:	2300      	movs	r3, #0
 8001610:	60fb      	str	r3, [r7, #12]
 8001612:	f002 ff05 	bl	8004420 <vPortExitCritical>
 8001616:	68fb      	ldr	r3, [r7, #12]
 8001618:	4618      	mov	r0, r3
 800161a:	3710      	adds	r7, #16
 800161c:	46bd      	mov	sp, r7
 800161e:	bd80      	pop	{r7, pc}

08001620 <xQueueIsQueueEmptyFromISR>:
 8001620:	b480      	push	{r7}
 8001622:	b085      	sub	sp, #20
 8001624:	af00      	add	r7, sp, #0
 8001626:	6078      	str	r0, [r7, #4]
 8001628:	687b      	ldr	r3, [r7, #4]
 800162a:	2b00      	cmp	r3, #0
 800162c:	d109      	bne.n	8001642 <xQueueIsQueueEmptyFromISR+0x22>
 800162e:	f04f 0310 	mov.w	r3, #16
 8001632:	f383 8811 	msr	BASEPRI, r3
 8001636:	f3bf 8f6f 	isb	sy
 800163a:	f3bf 8f4f 	dsb	sy
 800163e:	60bb      	str	r3, [r7, #8]
 8001640:	e7fe      	b.n	8001640 <xQueueIsQueueEmptyFromISR+0x20>
 8001642:	687b      	ldr	r3, [r7, #4]
 8001644:	6b9b      	ldr	r3, [r3, #56]	; 0x38
 8001646:	2b00      	cmp	r3, #0
 8001648:	d102      	bne.n	8001650 <xQueueIsQueueEmptyFromISR+0x30>
 800164a:	2301      	movs	r3, #1
 800164c:	60fb      	str	r3, [r7, #12]
 800164e:	e001      	b.n	8001654 <xQueueIsQueueEmptyFromISR+0x34>
 8001650:	2300      	movs	r3, #0
 8001652:	60fb      	str	r3, [r7, #12]
 8001654:	68fb      	ldr	r3, [r7, #12]
 8001656:	4618      	mov	r0, r3
 8001658:	3714      	adds	r7, #20
 800165a:	46bd      	mov	sp, r7
 800165c:	f85d 7b04 	ldr.w	r7, [sp], #4
 8001660:	4770      	bx	lr

08001662 <prvIsQueueFull>:
 8001662:	b580      	push	{r7, lr}
 8001664:	b084      	sub	sp, #16
 8001666:	af00      	add	r7, sp, #0
 8001668:	6078      	str	r0, [r7, #4]
 800166a:	f002 feab 	bl	80043c4 <vPortEnterCritical>
 800166e:	687b      	ldr	r3, [r7, #4]
 8001670:	6b9a      	ldr	r2, [r3, #56]	; 0x38
 8001672:	687b      	ldr	r3, [r7, #4]
 8001674:	6bdb      	ldr	r3, [r3, #60]	; 0x3c
 8001676:	429a      	cmp	r2, r3
 8001678:	d102      	bne.n	8001680 <prvIsQueueFull+0x1e>
 800167a:	2301      	movs	r3, #1
 800167c:	60fb      	str	r3, [r7, #12]
 800167e:	e001      	b.n	8001684 <prvIsQueueFull+0x22>
 8001680:	2300      	movs	r3, #0
 8001682:	60fb      	str	r3, [r7, #12]
 8001684:	f002 fecc 	bl	8004420 <vPortExitCritical>
 8001688:	68fb      	ldr	r3, [r7, #12]
 800168a:	4618      	mov	r0, r3
 800168c:	3710      	adds	r7, #16
 800168e:	46bd      	mov	sp, r7
 8001690:	bd80      	pop	{r7, pc}

08001692 <xQueueIsQueueFullFromISR>:
 8001692:	b480      	push	{r7}
 8001694:	b085      	sub	sp, #20
 8001696:	af00      	add	r7, sp, #0
 8001698:	6078      	str	r0, [r7, #4]
 800169a:	687b      	ldr	r3, [r7, #4]
 800169c:	2b00      	cmp	r3, #0
 800169e:	d109      	bne.n	80016b4 <xQueueIsQueueFullFromISR+0x22>
 80016a0:	f04f 0310 	mov.w	r3, #16
 80016a4:	f383 8811 	msr	BASEPRI, r3
 80016a8:	f3bf 8f6f 	isb	sy
 80016ac:	f3bf 8f4f 	dsb	sy
 80016b0:	60bb      	str	r3, [r7, #8]
 80016b2:	e7fe      	b.n	80016b2 <xQueueIsQueueFullFromISR+0x20>
 80016b4:	687b      	ldr	r3, [r7, #4]
 80016b6:	6b9a      	ldr	r2, [r3, #56]	; 0x38
 80016b8:	687b      	ldr	r3, [r7, #4]
 80016ba:	6bdb      	ldr	r3, [r3, #60]	; 0x3c
 80016bc:	429a      	cmp	r2, r3
 80016be:	d102      	bne.n	80016c6 <xQueueIsQueueFullFromISR+0x34>
 80016c0:	2301      	movs	r3, #1
 80016c2:	60fb      	str	r3, [r7, #12]
 80016c4:	e001      	b.n	80016ca <xQueueIsQueueFullFromISR+0x38>
 80016c6:	2300      	movs	r3, #0
 80016c8:	60fb      	str	r3, [r7, #12]
 80016ca:	68fb      	ldr	r3, [r7, #12]
 80016cc:	4618      	mov	r0, r3
 80016ce:	3714      	adds	r7, #20
 80016d0:	46bd      	mov	sp, r7
 80016d2:	f85d 7b04 	ldr.w	r7, [sp], #4
 80016d6:	4770      	bx	lr

080016d8 <vQueueAddToRegistry>:
 80016d8:	b480      	push	{r7}
 80016da:	b085      	sub	sp, #20
 80016dc:	af00      	add	r7, sp, #0
 80016de:	6078      	str	r0, [r7, #4]
 80016e0:	6039      	str	r1, [r7, #0]
 80016e2:	2300      	movs	r3, #0
 80016e4:	60fb      	str	r3, [r7, #12]
 80016e6:	e014      	b.n	8001712 <vQueueAddToRegistry+0x3a>
 80016e8:	4a0e      	ldr	r2, [pc, #56]	; (8001724 <vQueueAddToRegistry+0x4c>)
 80016ea:	68fb      	ldr	r3, [r7, #12]
 80016ec:	f852 3033 	ldr.w	r3, [r2, r3, lsl #3]
 80016f0:	2b00      	cmp	r3, #0
 80016f2:	d10b      	bne.n	800170c <vQueueAddToRegistry+0x34>
 80016f4:	490b      	ldr	r1, [pc, #44]	; (8001724 <vQueueAddToRegistry+0x4c>)
 80016f6:	68fb      	ldr	r3, [r7, #12]
 80016f8:	683a      	ldr	r2, [r7, #0]
 80016fa:	f841 2033 	str.w	r2, [r1, r3, lsl #3]
 80016fe:	4a09      	ldr	r2, [pc, #36]	; (8001724 <vQueueAddToRegistry+0x4c>)
 8001700:	68fb      	ldr	r3, [r7, #12]
 8001702:	00db      	lsls	r3, r3, #3
 8001704:	4413      	add	r3, r2
 8001706:	687a      	ldr	r2, [r7, #4]
 8001708:	605a      	str	r2, [r3, #4]
 800170a:	e005      	b.n	8001718 <vQueueAddToRegistry+0x40>
 800170c:	68fb      	ldr	r3, [r7, #12]
 800170e:	3301      	adds	r3, #1
 8001710:	60fb      	str	r3, [r7, #12]
 8001712:	68fb      	ldr	r3, [r7, #12]
 8001714:	2b07      	cmp	r3, #7
 8001716:	d9e7      	bls.n	80016e8 <vQueueAddToRegistry+0x10>
 8001718:	bf00      	nop
 800171a:	3714      	adds	r7, #20
 800171c:	46bd      	mov	sp, r7
 800171e:	f85d 7b04 	ldr.w	r7, [sp], #4
 8001722:	4770      	bx	lr
 8001724:	2000854c 	andcs	r8, r0, ip, asr #10

08001728 <vQueueUnregisterQueue>:
 8001728:	b480      	push	{r7}
 800172a:	b085      	sub	sp, #20
 800172c:	af00      	add	r7, sp, #0
 800172e:	6078      	str	r0, [r7, #4]
 8001730:	2300      	movs	r3, #0
 8001732:	60fb      	str	r3, [r7, #12]
 8001734:	e010      	b.n	8001758 <vQueueUnregisterQueue+0x30>
 8001736:	4a0d      	ldr	r2, [pc, #52]	; (800176c <vQueueUnregisterQueue+0x44>)
 8001738:	68fb      	ldr	r3, [r7, #12]
 800173a:	00db      	lsls	r3, r3, #3
 800173c:	4413      	add	r3, r2
 800173e:	685b      	ldr	r3, [r3, #4]
 8001740:	687a      	ldr	r2, [r7, #4]
 8001742:	429a      	cmp	r2, r3
 8001744:	d105      	bne.n	8001752 <vQueueUnregisterQueue+0x2a>
 8001746:	4a09      	ldr	r2, [pc, #36]	; (800176c <vQueueUnregisterQueue+0x44>)
 8001748:	68fb      	ldr	r3, [r7, #12]
 800174a:	2100      	movs	r1, #0
 800174c:	f842 1033 	str.w	r1, [r2, r3, lsl #3]
 8001750:	e005      	b.n	800175e <vQueueUnregisterQueue+0x36>
 8001752:	68fb      	ldr	r3, [r7, #12]
 8001754:	3301      	adds	r3, #1
 8001756:	60fb      	str	r3, [r7, #12]
 8001758:	68fb      	ldr	r3, [r7, #12]
 800175a:	2b07      	cmp	r3, #7
 800175c:	d9eb      	bls.n	8001736 <vQueueUnregisterQueue+0xe>
 800175e:	bf00      	nop
 8001760:	3714      	adds	r7, #20
 8001762:	46bd      	mov	sp, r7
 8001764:	f85d 7b04 	ldr.w	r7, [sp], #4
 8001768:	4770      	bx	lr
 800176a:	bf00      	nop
 800176c:	2000854c 	andcs	r8, r0, ip, asr #10

08001770 <vQueueWaitForMessageRestricted>:
 8001770:	b580      	push	{r7, lr}
 8001772:	b086      	sub	sp, #24
 8001774:	af00      	add	r7, sp, #0
 8001776:	60f8      	str	r0, [r7, #12]
 8001778:	60b9      	str	r1, [r7, #8]
 800177a:	607a      	str	r2, [r7, #4]
 800177c:	68fb      	ldr	r3, [r7, #12]
 800177e:	617b      	str	r3, [r7, #20]
 8001780:	f002 fe20 	bl	80043c4 <vPortEnterCritical>
 8001784:	697b      	ldr	r3, [r7, #20]
 8001786:	6c5b      	ldr	r3, [r3, #68]	; 0x44
 8001788:	f1b3 3fff 	cmp.w	r3, #4294967295	; 0xffffffff
 800178c:	d102      	bne.n	8001794 <vQueueWaitForMessageRestricted+0x24>
 800178e:	697b      	ldr	r3, [r7, #20]
 8001790:	2200      	movs	r2, #0
 8001792:	645a      	str	r2, [r3, #68]	; 0x44
 8001794:	697b      	ldr	r3, [r7, #20]
 8001796:	6c9b      	ldr	r3, [r3, #72]	; 0x48
 8001798:	f1b3 3fff 	cmp.w	r3, #4294967295	; 0xffffffff
 800179c:	d102      	bne.n	80017a4 <vQueueWaitForMessageRestricted+0x34>
 800179e:	697b      	ldr	r3, [r7, #20]
 80017a0:	2200      	movs	r2, #0
 80017a2:	649a      	str	r2, [r3, #72]	; 0x48
 80017a4:	f002 fe3c 	bl	8004420 <vPortExitCritical>
 80017a8:	697b      	ldr	r3, [r7, #20]
 80017aa:	6b9b      	ldr	r3, [r3, #56]	; 0x38
 80017ac:	2b00      	cmp	r3, #0
 80017ae:	d106      	bne.n	80017be <vQueueWaitForMessageRestricted+0x4e>
 80017b0:	697b      	ldr	r3, [r7, #20]
 80017b2:	3324      	adds	r3, #36	; 0x24
 80017b4:	687a      	ldr	r2, [r7, #4]
 80017b6:	68b9      	ldr	r1, [r7, #8]
 80017b8:	4618      	mov	r0, r3
 80017ba:	f001 f865 	bl	8002888 <vTaskPlaceOnEventListRestricted>
 80017be:	6978      	ldr	r0, [r7, #20]
 80017c0:	f7ff fecc 	bl	800155c <prvUnlockQueue>
 80017c4:	bf00      	nop
 80017c6:	3718      	adds	r7, #24
 80017c8:	46bd      	mov	sp, r7
 80017ca:	bd80      	pop	{r7, pc}

080017cc <xTaskGenericCreate>:
 80017cc:	b580      	push	{r7, lr}
 80017ce:	b08c      	sub	sp, #48	; 0x30
 80017d0:	af02      	add	r7, sp, #8
 80017d2:	60f8      	str	r0, [r7, #12]
 80017d4:	60b9      	str	r1, [r7, #8]
 80017d6:	603b      	str	r3, [r7, #0]
 80017d8:	4613      	mov	r3, r2
 80017da:	80fb      	strh	r3, [r7, #6]
 80017dc:	68fb      	ldr	r3, [r7, #12]
 80017de:	2b00      	cmp	r3, #0
 80017e0:	d109      	bne.n	80017f6 <xTaskGenericCreate+0x2a>
 80017e2:	f04f 0310 	mov.w	r3, #16
 80017e6:	f383 8811 	msr	BASEPRI, r3
 80017ea:	f3bf 8f6f 	isb	sy
 80017ee:	f3bf 8f4f 	dsb	sy
 80017f2:	61bb      	str	r3, [r7, #24]
 80017f4:	e7fe      	b.n	80017f4 <xTaskGenericCreate+0x28>
 80017f6:	6b3b      	ldr	r3, [r7, #48]	; 0x30
 80017f8:	2b04      	cmp	r3, #4
 80017fa:	d909      	bls.n	8001810 <xTaskGenericCreate+0x44>
 80017fc:	f04f 0310 	mov.w	r3, #16
 8001800:	f383 8811 	msr	BASEPRI, r3
 8001804:	f3bf 8f6f 	isb	sy
 8001808:	f3bf 8f4f 	dsb	sy
 800180c:	617b      	str	r3, [r7, #20]
 800180e:	e7fe      	b.n	800180e <xTaskGenericCreate+0x42>
 8001810:	88fb      	ldrh	r3, [r7, #6]
 8001812:	6bb9      	ldr	r1, [r7, #56]	; 0x38
 8001814:	4618      	mov	r0, r3
 8001816:	f001 fb11 	bl	8002e3c <prvAllocateTCBAndStack>
 800181a:	6238      	str	r0, [r7, #32]
 800181c:	6a3b      	ldr	r3, [r7, #32]
 800181e:	2b00      	cmp	r3, #0
 8001820:	d078      	beq.n	8001914 <xTaskGenericCreate+0x148>
 8001822:	6a3b      	ldr	r3, [r7, #32]
 8001824:	6b1a      	ldr	r2, [r3, #48]	; 0x30
 8001826:	88fb      	ldrh	r3, [r7, #6]
 8001828:	f103 4380 	add.w	r3, r3, #1073741824	; 0x40000000
 800182c:	3b01      	subs	r3, #1
 800182e:	009b      	lsls	r3, r3, #2
 8001830:	4413      	add	r3, r2
 8001832:	61fb      	str	r3, [r7, #28]
 8001834:	69fb      	ldr	r3, [r7, #28]
 8001836:	f023 0307 	bic.w	r3, r3, #7
 800183a:	61fb      	str	r3, [r7, #28]
 800183c:	69fb      	ldr	r3, [r7, #28]
 800183e:	f003 0307 	and.w	r3, r3, #7
 8001842:	2b00      	cmp	r3, #0
 8001844:	d009      	beq.n	800185a <xTaskGenericCreate+0x8e>
 8001846:	f04f 0310 	mov.w	r3, #16
 800184a:	f383 8811 	msr	BASEPRI, r3
 800184e:	f3bf 8f6f 	isb	sy
 8001852:	f3bf 8f4f 	dsb	sy
 8001856:	613b      	str	r3, [r7, #16]
 8001858:	e7fe      	b.n	8001858 <xTaskGenericCreate+0x8c>
 800185a:	88fb      	ldrh	r3, [r7, #6]
 800185c:	9300      	str	r3, [sp, #0]
 800185e:	6bfb      	ldr	r3, [r7, #60]	; 0x3c
 8001860:	6b3a      	ldr	r2, [r7, #48]	; 0x30
 8001862:	68b9      	ldr	r1, [r7, #8]
 8001864:	6a38      	ldr	r0, [r7, #32]
 8001866:	f001 f9e3 	bl	8002c30 <prvInitialiseTCBVariables>
 800186a:	683a      	ldr	r2, [r7, #0]
 800186c:	68f9      	ldr	r1, [r7, #12]
 800186e:	69f8      	ldr	r0, [r7, #28]
 8001870:	f002 fc92 	bl	8004198 <pxPortInitialiseStack>
 8001874:	4602      	mov	r2, r0
 8001876:	6a3b      	ldr	r3, [r7, #32]
 8001878:	601a      	str	r2, [r3, #0]
 800187a:	6b7b      	ldr	r3, [r7, #52]	; 0x34
 800187c:	2b00      	cmp	r3, #0
 800187e:	d002      	beq.n	8001886 <xTaskGenericCreate+0xba>
 8001880:	6b7b      	ldr	r3, [r7, #52]	; 0x34
 8001882:	6a3a      	ldr	r2, [r7, #32]
 8001884:	601a      	str	r2, [r3, #0]
 8001886:	f002 fd9d 	bl	80043c4 <vPortEnterCritical>
 800188a:	4b31      	ldr	r3, [pc, #196]	; (8001950 <xTaskGenericCreate+0x184>)
 800188c:	681b      	ldr	r3, [r3, #0]
 800188e:	3301      	adds	r3, #1
 8001890:	4a2f      	ldr	r2, [pc, #188]	; (8001950 <xTaskGenericCreate+0x184>)
 8001892:	6013      	str	r3, [r2, #0]
 8001894:	4b2f      	ldr	r3, [pc, #188]	; (8001954 <xTaskGenericCreate+0x188>)
 8001896:	681b      	ldr	r3, [r3, #0]
 8001898:	2b00      	cmp	r3, #0
 800189a:	d109      	bne.n	80018b0 <xTaskGenericCreate+0xe4>
 800189c:	4a2d      	ldr	r2, [pc, #180]	; (8001954 <xTaskGenericCreate+0x188>)
 800189e:	6a3b      	ldr	r3, [r7, #32]
 80018a0:	6013      	str	r3, [r2, #0]
 80018a2:	4b2b      	ldr	r3, [pc, #172]	; (8001950 <xTaskGenericCreate+0x184>)
 80018a4:	681b      	ldr	r3, [r3, #0]
 80018a6:	2b01      	cmp	r3, #1
 80018a8:	d10f      	bne.n	80018ca <xTaskGenericCreate+0xfe>
 80018aa:	f001 fa15 	bl	8002cd8 <prvInitialiseTaskLists>
 80018ae:	e00c      	b.n	80018ca <xTaskGenericCreate+0xfe>
 80018b0:	4b29      	ldr	r3, [pc, #164]	; (8001958 <xTaskGenericCreate+0x18c>)
 80018b2:	681b      	ldr	r3, [r3, #0]
 80018b4:	2b00      	cmp	r3, #0
 80018b6:	d108      	bne.n	80018ca <xTaskGenericCreate+0xfe>
 80018b8:	4b26      	ldr	r3, [pc, #152]	; (8001954 <xTaskGenericCreate+0x188>)
 80018ba:	681b      	ldr	r3, [r3, #0]
 80018bc:	6adb      	ldr	r3, [r3, #44]	; 0x2c
 80018be:	6b3a      	ldr	r2, [r7, #48]	; 0x30
 80018c0:	429a      	cmp	r2, r3
 80018c2:	d302      	bcc.n	80018ca <xTaskGenericCreate+0xfe>
 80018c4:	4a23      	ldr	r2, [pc, #140]	; (8001954 <xTaskGenericCreate+0x188>)
 80018c6:	6a3b      	ldr	r3, [r7, #32]
 80018c8:	6013      	str	r3, [r2, #0]
 80018ca:	4b24      	ldr	r3, [pc, #144]	; (800195c <xTaskGenericCreate+0x190>)
 80018cc:	681b      	ldr	r3, [r3, #0]
 80018ce:	3301      	adds	r3, #1
 80018d0:	4a22      	ldr	r2, [pc, #136]	; (800195c <xTaskGenericCreate+0x190>)
 80018d2:	6013      	str	r3, [r2, #0]
 80018d4:	4b21      	ldr	r3, [pc, #132]	; (800195c <xTaskGenericCreate+0x190>)
 80018d6:	681a      	ldr	r2, [r3, #0]
 80018d8:	6a3b      	ldr	r3, [r7, #32]
 80018da:	645a      	str	r2, [r3, #68]	; 0x44
 80018dc:	6a3b      	ldr	r3, [r7, #32]
 80018de:	6adb      	ldr	r3, [r3, #44]	; 0x2c
 80018e0:	2201      	movs	r2, #1
 80018e2:	409a      	lsls	r2, r3
 80018e4:	4b1e      	ldr	r3, [pc, #120]	; (8001960 <xTaskGenericCreate+0x194>)
 80018e6:	681b      	ldr	r3, [r3, #0]
 80018e8:	4313      	orrs	r3, r2
 80018ea:	4a1d      	ldr	r2, [pc, #116]	; (8001960 <xTaskGenericCreate+0x194>)
 80018ec:	6013      	str	r3, [r2, #0]
 80018ee:	6a3b      	ldr	r3, [r7, #32]
 80018f0:	6ada      	ldr	r2, [r3, #44]	; 0x2c
 80018f2:	4613      	mov	r3, r2
 80018f4:	009b      	lsls	r3, r3, #2
 80018f6:	4413      	add	r3, r2
 80018f8:	009b      	lsls	r3, r3, #2
 80018fa:	4a1a      	ldr	r2, [pc, #104]	; (8001964 <xTaskGenericCreate+0x198>)
 80018fc:	441a      	add	r2, r3
 80018fe:	6a3b      	ldr	r3, [r7, #32]
 8001900:	3304      	adds	r3, #4
 8001902:	4619      	mov	r1, r3
 8001904:	4610      	mov	r0, r2
 8001906:	f7fe feec 	bl	80006e2 <vListInsertEnd>
 800190a:	2301      	movs	r3, #1
 800190c:	627b      	str	r3, [r7, #36]	; 0x24
 800190e:	f002 fd87 	bl	8004420 <vPortExitCritical>
 8001912:	e002      	b.n	800191a <xTaskGenericCreate+0x14e>
 8001914:	f04f 33ff 	mov.w	r3, #4294967295	; 0xffffffff
 8001918:	627b      	str	r3, [r7, #36]	; 0x24
 800191a:	6a7b      	ldr	r3, [r7, #36]	; 0x24
 800191c:	2b01      	cmp	r3, #1
 800191e:	d111      	bne.n	8001944 <xTaskGenericCreate+0x178>
 8001920:	4b0d      	ldr	r3, [pc, #52]	; (8001958 <xTaskGenericCreate+0x18c>)
 8001922:	681b      	ldr	r3, [r3, #0]
 8001924:	2b00      	cmp	r3, #0
 8001926:	d00d      	beq.n	8001944 <xTaskGenericCreate+0x178>
 8001928:	4b0a      	ldr	r3, [pc, #40]	; (8001954 <xTaskGenericCreate+0x188>)
 800192a:	681b      	ldr	r3, [r3, #0]
 800192c:	6adb      	ldr	r3, [r3, #44]	; 0x2c
 800192e:	6b3a      	ldr	r2, [r7, #48]	; 0x30
 8001930:	429a      	cmp	r2, r3
 8001932:	d907      	bls.n	8001944 <xTaskGenericCreate+0x178>
 8001934:	4b0c      	ldr	r3, [pc, #48]	; (8001968 <xTaskGenericCreate+0x19c>)
 8001936:	f04f 5280 	mov.w	r2, #268435456	; 0x10000000
 800193a:	601a      	str	r2, [r3, #0]
 800193c:	f3bf 8f4f 	dsb	sy
 8001940:	f3bf 8f6f 	isb	sy
 8001944:	6a7b      	ldr	r3, [r7, #36]	; 0x24
 8001946:	4618      	mov	r0, r3
 8001948:	3728      	adds	r7, #40	; 0x28
 800194a:	46bd      	mov	sp, r7
 800194c:	bd80      	pop	{r7, pc}
 800194e:	bf00      	nop
 8001950:	20000ab0 			; <UNDEFINED> instruction: 0x20000ab0
 8001954:	200009d8 	ldrdcs	r0, [r0], -r8
 8001958:	20000abc 			; <UNDEFINED> instruction: 0x20000abc
 800195c:	20000acc 	andcs	r0, r0, ip, asr #21
 8001960:	20000ab8 			; <UNDEFINED> instruction: 0x20000ab8
 8001964:	200009dc 	ldrdcs	r0, [r0], -ip
 8001968:	e000ed04 	and	lr, r0, r4, lsl #26

0800196c <vTaskDelete>:
 800196c:	b580      	push	{r7, lr}
 800196e:	b084      	sub	sp, #16
 8001970:	af00      	add	r7, sp, #0
 8001972:	6078      	str	r0, [r7, #4]
 8001974:	f002 fd26 	bl	80043c4 <vPortEnterCritical>
 8001978:	687b      	ldr	r3, [r7, #4]
 800197a:	2b00      	cmp	r3, #0
 800197c:	d102      	bne.n	8001984 <vTaskDelete+0x18>
 800197e:	4b34      	ldr	r3, [pc, #208]	; (8001a50 <vTaskDelete+0xe4>)
 8001980:	681b      	ldr	r3, [r3, #0]
 8001982:	e000      	b.n	8001986 <vTaskDelete+0x1a>
 8001984:	687b      	ldr	r3, [r7, #4]
 8001986:	60fb      	str	r3, [r7, #12]
 8001988:	68fb      	ldr	r3, [r7, #12]
 800198a:	3304      	adds	r3, #4
 800198c:	4618      	mov	r0, r3
 800198e:	f7fe ff05 	bl	800079c <uxListRemove>
 8001992:	4603      	mov	r3, r0
 8001994:	2b00      	cmp	r3, #0
 8001996:	d115      	bne.n	80019c4 <vTaskDelete+0x58>
 8001998:	68fb      	ldr	r3, [r7, #12]
 800199a:	6ada      	ldr	r2, [r3, #44]	; 0x2c
 800199c:	492d      	ldr	r1, [pc, #180]	; (8001a54 <vTaskDelete+0xe8>)
 800199e:	4613      	mov	r3, r2
 80019a0:	009b      	lsls	r3, r3, #2
 80019a2:	4413      	add	r3, r2
 80019a4:	009b      	lsls	r3, r3, #2
 80019a6:	440b      	add	r3, r1
 80019a8:	681b      	ldr	r3, [r3, #0]
 80019aa:	2b00      	cmp	r3, #0
 80019ac:	d10a      	bne.n	80019c4 <vTaskDelete+0x58>
 80019ae:	68fb      	ldr	r3, [r7, #12]
 80019b0:	6adb      	ldr	r3, [r3, #44]	; 0x2c
 80019b2:	2201      	movs	r2, #1
 80019b4:	fa02 f303 	lsl.w	r3, r2, r3
 80019b8:	43da      	mvns	r2, r3
 80019ba:	4b27      	ldr	r3, [pc, #156]	; (8001a58 <vTaskDelete+0xec>)
 80019bc:	681b      	ldr	r3, [r3, #0]
 80019be:	4013      	ands	r3, r2
 80019c0:	4a25      	ldr	r2, [pc, #148]	; (8001a58 <vTaskDelete+0xec>)
 80019c2:	6013      	str	r3, [r2, #0]
 80019c4:	68fb      	ldr	r3, [r7, #12]
 80019c6:	6a9b      	ldr	r3, [r3, #40]	; 0x28
 80019c8:	2b00      	cmp	r3, #0
 80019ca:	d004      	beq.n	80019d6 <vTaskDelete+0x6a>
 80019cc:	68fb      	ldr	r3, [r7, #12]
 80019ce:	3318      	adds	r3, #24
 80019d0:	4618      	mov	r0, r3
 80019d2:	f7fe fee3 	bl	800079c <uxListRemove>
 80019d6:	68fb      	ldr	r3, [r7, #12]
 80019d8:	3304      	adds	r3, #4
 80019da:	4619      	mov	r1, r3
 80019dc:	481f      	ldr	r0, [pc, #124]	; (8001a5c <vTaskDelete+0xf0>)
 80019de:	f7fe fe80 	bl	80006e2 <vListInsertEnd>
 80019e2:	4b1f      	ldr	r3, [pc, #124]	; (8001a60 <vTaskDelete+0xf4>)
 80019e4:	681b      	ldr	r3, [r3, #0]
 80019e6:	3301      	adds	r3, #1
 80019e8:	4a1d      	ldr	r2, [pc, #116]	; (8001a60 <vTaskDelete+0xf4>)
 80019ea:	6013      	str	r3, [r2, #0]
 80019ec:	4b1d      	ldr	r3, [pc, #116]	; (8001a64 <vTaskDelete+0xf8>)
 80019ee:	681b      	ldr	r3, [r3, #0]
 80019f0:	3301      	adds	r3, #1
 80019f2:	4a1c      	ldr	r2, [pc, #112]	; (8001a64 <vTaskDelete+0xf8>)
 80019f4:	6013      	str	r3, [r2, #0]
 80019f6:	f002 fd13 	bl	8004420 <vPortExitCritical>
 80019fa:	4b1b      	ldr	r3, [pc, #108]	; (8001a68 <vTaskDelete+0xfc>)
 80019fc:	681b      	ldr	r3, [r3, #0]
 80019fe:	2b00      	cmp	r3, #0
 8001a00:	d021      	beq.n	8001a46 <vTaskDelete+0xda>
 8001a02:	4b13      	ldr	r3, [pc, #76]	; (8001a50 <vTaskDelete+0xe4>)
 8001a04:	681b      	ldr	r3, [r3, #0]
 8001a06:	68fa      	ldr	r2, [r7, #12]
 8001a08:	429a      	cmp	r2, r3
 8001a0a:	d116      	bne.n	8001a3a <vTaskDelete+0xce>
 8001a0c:	4b17      	ldr	r3, [pc, #92]	; (8001a6c <vTaskDelete+0x100>)
 8001a0e:	681b      	ldr	r3, [r3, #0]
 8001a10:	2b00      	cmp	r3, #0
 8001a12:	d009      	beq.n	8001a28 <vTaskDelete+0xbc>
 8001a14:	f04f 0310 	mov.w	r3, #16
 8001a18:	f383 8811 	msr	BASEPRI, r3
 8001a1c:	f3bf 8f6f 	isb	sy
 8001a20:	f3bf 8f4f 	dsb	sy
 8001a24:	60bb      	str	r3, [r7, #8]
 8001a26:	e7fe      	b.n	8001a26 <vTaskDelete+0xba>
 8001a28:	4b11      	ldr	r3, [pc, #68]	; (8001a70 <vTaskDelete+0x104>)
 8001a2a:	f04f 5280 	mov.w	r2, #268435456	; 0x10000000
 8001a2e:	601a      	str	r2, [r3, #0]
 8001a30:	f3bf 8f4f 	dsb	sy
 8001a34:	f3bf 8f6f 	isb	sy
 8001a38:	e005      	b.n	8001a46 <vTaskDelete+0xda>
 8001a3a:	f002 fcc3 	bl	80043c4 <vPortEnterCritical>
 8001a3e:	f001 faea 	bl	8003016 <prvResetNextTaskUnblockTime>
 8001a42:	f002 fced 	bl	8004420 <vPortExitCritical>
 8001a46:	bf00      	nop
 8001a48:	3710      	adds	r7, #16
 8001a4a:	46bd      	mov	sp, r7
 8001a4c:	bd80      	pop	{r7, pc}
 8001a4e:	bf00      	nop
 8001a50:	200009d8 	ldrdcs	r0, [r0], -r8
 8001a54:	200009dc 	ldrdcs	r0, [r0], -ip
 8001a58:	20000ab8 			; <UNDEFINED> instruction: 0x20000ab8
 8001a5c:	20000a84 	andcs	r0, r0, r4, lsl #21
 8001a60:	20000a98 	mulcs	r0, r8, sl
 8001a64:	20000acc 	andcs	r0, r0, ip, asr #21
 8001a68:	20000abc 			; <UNDEFINED> instruction: 0x20000abc
 8001a6c:	20000ad4 	ldrdcs	r0, [r0], -r4
 8001a70:	e000ed04 	and	lr, r0, r4, lsl #26

08001a74 <vTaskDelayUntil>:
 8001a74:	b580      	push	{r7, lr}
 8001a76:	b08a      	sub	sp, #40	; 0x28
 8001a78:	af00      	add	r7, sp, #0
 8001a7a:	6078      	str	r0, [r7, #4]
 8001a7c:	6039      	str	r1, [r7, #0]
 8001a7e:	2300      	movs	r3, #0
 8001a80:	627b      	str	r3, [r7, #36]	; 0x24
 8001a82:	687b      	ldr	r3, [r7, #4]
 8001a84:	2b00      	cmp	r3, #0
 8001a86:	d109      	bne.n	8001a9c <vTaskDelayUntil+0x28>
 8001a88:	f04f 0310 	mov.w	r3, #16
 8001a8c:	f383 8811 	msr	BASEPRI, r3
 8001a90:	f3bf 8f6f 	isb	sy
 8001a94:	f3bf 8f4f 	dsb	sy
 8001a98:	617b      	str	r3, [r7, #20]
 8001a9a:	e7fe      	b.n	8001a9a <vTaskDelayUntil+0x26>
 8001a9c:	683b      	ldr	r3, [r7, #0]
 8001a9e:	2b00      	cmp	r3, #0
 8001aa0:	d109      	bne.n	8001ab6 <vTaskDelayUntil+0x42>
 8001aa2:	f04f 0310 	mov.w	r3, #16
 8001aa6:	f383 8811 	msr	BASEPRI, r3
 8001aaa:	f3bf 8f6f 	isb	sy
 8001aae:	f3bf 8f4f 	dsb	sy
 8001ab2:	613b      	str	r3, [r7, #16]
 8001ab4:	e7fe      	b.n	8001ab4 <vTaskDelayUntil+0x40>
 8001ab6:	4b32      	ldr	r3, [pc, #200]	; (8001b80 <vTaskDelayUntil+0x10c>)
 8001ab8:	681b      	ldr	r3, [r3, #0]
 8001aba:	2b00      	cmp	r3, #0
 8001abc:	d009      	beq.n	8001ad2 <vTaskDelayUntil+0x5e>
 8001abe:	f04f 0310 	mov.w	r3, #16
 8001ac2:	f383 8811 	msr	BASEPRI, r3
 8001ac6:	f3bf 8f6f 	isb	sy
 8001aca:	f3bf 8f4f 	dsb	sy
 8001ace:	60fb      	str	r3, [r7, #12]
 8001ad0:	e7fe      	b.n	8001ad0 <vTaskDelayUntil+0x5c>
 8001ad2:	f000 fb97 	bl	8002204 <vTaskSuspendAll>
 8001ad6:	4b2b      	ldr	r3, [pc, #172]	; (8001b84 <vTaskDelayUntil+0x110>)
 8001ad8:	681b      	ldr	r3, [r3, #0]
 8001ada:	623b      	str	r3, [r7, #32]
 8001adc:	687b      	ldr	r3, [r7, #4]
 8001ade:	681b      	ldr	r3, [r3, #0]
 8001ae0:	683a      	ldr	r2, [r7, #0]
 8001ae2:	4413      	add	r3, r2
 8001ae4:	61fb      	str	r3, [r7, #28]
 8001ae6:	687b      	ldr	r3, [r7, #4]
 8001ae8:	681b      	ldr	r3, [r3, #0]
 8001aea:	6a3a      	ldr	r2, [r7, #32]
 8001aec:	429a      	cmp	r2, r3
 8001aee:	d20b      	bcs.n	8001b08 <vTaskDelayUntil+0x94>
 8001af0:	687b      	ldr	r3, [r7, #4]
 8001af2:	681b      	ldr	r3, [r3, #0]
 8001af4:	69fa      	ldr	r2, [r7, #28]
 8001af6:	429a      	cmp	r2, r3
 8001af8:	d211      	bcs.n	8001b1e <vTaskDelayUntil+0xaa>
 8001afa:	69fa      	ldr	r2, [r7, #28]
 8001afc:	6a3b      	ldr	r3, [r7, #32]
 8001afe:	429a      	cmp	r2, r3
 8001b00:	d90d      	bls.n	8001b1e <vTaskDelayUntil+0xaa>
 8001b02:	2301      	movs	r3, #1
 8001b04:	627b      	str	r3, [r7, #36]	; 0x24
 8001b06:	e00a      	b.n	8001b1e <vTaskDelayUntil+0xaa>
 8001b08:	687b      	ldr	r3, [r7, #4]
 8001b0a:	681b      	ldr	r3, [r3, #0]
 8001b0c:	69fa      	ldr	r2, [r7, #28]
 8001b0e:	429a      	cmp	r2, r3
 8001b10:	d303      	bcc.n	8001b1a <vTaskDelayUntil+0xa6>
 8001b12:	69fa      	ldr	r2, [r7, #28]
 8001b14:	6a3b      	ldr	r3, [r7, #32]
 8001b16:	429a      	cmp	r2, r3
 8001b18:	d901      	bls.n	8001b1e <vTaskDelayUntil+0xaa>
 8001b1a:	2301      	movs	r3, #1
 8001b1c:	627b      	str	r3, [r7, #36]	; 0x24
 8001b1e:	687b      	ldr	r3, [r7, #4]
 8001b20:	69fa      	ldr	r2, [r7, #28]
 8001b22:	601a      	str	r2, [r3, #0]
 8001b24:	6a7b      	ldr	r3, [r7, #36]	; 0x24
 8001b26:	2b00      	cmp	r3, #0
 8001b28:	d017      	beq.n	8001b5a <vTaskDelayUntil+0xe6>
 8001b2a:	4b17      	ldr	r3, [pc, #92]	; (8001b88 <vTaskDelayUntil+0x114>)
 8001b2c:	681b      	ldr	r3, [r3, #0]
 8001b2e:	3304      	adds	r3, #4
 8001b30:	4618      	mov	r0, r3
 8001b32:	f7fe fe33 	bl	800079c <uxListRemove>
 8001b36:	4603      	mov	r3, r0
 8001b38:	2b00      	cmp	r3, #0
 8001b3a:	d10b      	bne.n	8001b54 <vTaskDelayUntil+0xe0>
 8001b3c:	4b12      	ldr	r3, [pc, #72]	; (8001b88 <vTaskDelayUntil+0x114>)
 8001b3e:	681b      	ldr	r3, [r3, #0]
 8001b40:	6adb      	ldr	r3, [r3, #44]	; 0x2c
 8001b42:	2201      	movs	r2, #1
 8001b44:	fa02 f303 	lsl.w	r3, r2, r3
 8001b48:	43da      	mvns	r2, r3
 8001b4a:	4b10      	ldr	r3, [pc, #64]	; (8001b8c <vTaskDelayUntil+0x118>)
 8001b4c:	681b      	ldr	r3, [r3, #0]
 8001b4e:	4013      	ands	r3, r2
 8001b50:	4a0e      	ldr	r2, [pc, #56]	; (8001b8c <vTaskDelayUntil+0x118>)
 8001b52:	6013      	str	r3, [r2, #0]
 8001b54:	69f8      	ldr	r0, [r7, #28]
 8001b56:	f001 f93b 	bl	8002dd0 <prvAddCurrentTaskToDelayedList>
 8001b5a:	f000 fb61 	bl	8002220 <xTaskResumeAll>
 8001b5e:	61b8      	str	r0, [r7, #24]
 8001b60:	69bb      	ldr	r3, [r7, #24]
 8001b62:	2b00      	cmp	r3, #0
 8001b64:	d107      	bne.n	8001b76 <vTaskDelayUntil+0x102>
 8001b66:	4b0a      	ldr	r3, [pc, #40]	; (8001b90 <vTaskDelayUntil+0x11c>)
 8001b68:	f04f 5280 	mov.w	r2, #268435456	; 0x10000000
 8001b6c:	601a      	str	r2, [r3, #0]
 8001b6e:	f3bf 8f4f 	dsb	sy
 8001b72:	f3bf 8f6f 	isb	sy
 8001b76:	bf00      	nop
 8001b78:	3728      	adds	r7, #40	; 0x28
 8001b7a:	46bd      	mov	sp, r7
 8001b7c:	bd80      	pop	{r7, pc}
 8001b7e:	bf00      	nop
 8001b80:	20000ad4 	ldrdcs	r0, [r0], -r4
 8001b84:	20000ab4 			; <UNDEFINED> instruction: 0x20000ab4
 8001b88:	200009d8 	ldrdcs	r0, [r0], -r8
 8001b8c:	20000ab8 			; <UNDEFINED> instruction: 0x20000ab8
 8001b90:	e000ed04 	and	lr, r0, r4, lsl #26

08001b94 <vTaskDelay>:
 8001b94:	b580      	push	{r7, lr}
 8001b96:	b086      	sub	sp, #24
 8001b98:	af00      	add	r7, sp, #0
 8001b9a:	6078      	str	r0, [r7, #4]
 8001b9c:	2300      	movs	r3, #0
 8001b9e:	617b      	str	r3, [r7, #20]
 8001ba0:	687b      	ldr	r3, [r7, #4]
 8001ba2:	2b00      	cmp	r3, #0
 8001ba4:	d02f      	beq.n	8001c06 <vTaskDelay+0x72>
 8001ba6:	4b1f      	ldr	r3, [pc, #124]	; (8001c24 <vTaskDelay+0x90>)
 8001ba8:	681b      	ldr	r3, [r3, #0]
 8001baa:	2b00      	cmp	r3, #0
 8001bac:	d009      	beq.n	8001bc2 <vTaskDelay+0x2e>
 8001bae:	f04f 0310 	mov.w	r3, #16
 8001bb2:	f383 8811 	msr	BASEPRI, r3
 8001bb6:	f3bf 8f6f 	isb	sy
 8001bba:	f3bf 8f4f 	dsb	sy
 8001bbe:	60fb      	str	r3, [r7, #12]
 8001bc0:	e7fe      	b.n	8001bc0 <vTaskDelay+0x2c>
 8001bc2:	f000 fb1f 	bl	8002204 <vTaskSuspendAll>
 8001bc6:	4b18      	ldr	r3, [pc, #96]	; (8001c28 <vTaskDelay+0x94>)
 8001bc8:	681b      	ldr	r3, [r3, #0]
 8001bca:	687a      	ldr	r2, [r7, #4]
 8001bcc:	4413      	add	r3, r2
 8001bce:	613b      	str	r3, [r7, #16]
 8001bd0:	4b16      	ldr	r3, [pc, #88]	; (8001c2c <vTaskDelay+0x98>)
 8001bd2:	681b      	ldr	r3, [r3, #0]
 8001bd4:	3304      	adds	r3, #4
 8001bd6:	4618      	mov	r0, r3
 8001bd8:	f7fe fde0 	bl	800079c <uxListRemove>
 8001bdc:	4603      	mov	r3, r0
 8001bde:	2b00      	cmp	r3, #0
 8001be0:	d10b      	bne.n	8001bfa <vTaskDelay+0x66>
 8001be2:	4b12      	ldr	r3, [pc, #72]	; (8001c2c <vTaskDelay+0x98>)
 8001be4:	681b      	ldr	r3, [r3, #0]
 8001be6:	6adb      	ldr	r3, [r3, #44]	; 0x2c
 8001be8:	2201      	movs	r2, #1
 8001bea:	fa02 f303 	lsl.w	r3, r2, r3
 8001bee:	43da      	mvns	r2, r3
 8001bf0:	4b0f      	ldr	r3, [pc, #60]	; (8001c30 <vTaskDelay+0x9c>)
 8001bf2:	681b      	ldr	r3, [r3, #0]
 8001bf4:	4013      	ands	r3, r2
 8001bf6:	4a0e      	ldr	r2, [pc, #56]	; (8001c30 <vTaskDelay+0x9c>)
 8001bf8:	6013      	str	r3, [r2, #0]
 8001bfa:	6938      	ldr	r0, [r7, #16]
 8001bfc:	f001 f8e8 	bl	8002dd0 <prvAddCurrentTaskToDelayedList>
 8001c00:	f000 fb0e 	bl	8002220 <xTaskResumeAll>
 8001c04:	6178      	str	r0, [r7, #20]
 8001c06:	697b      	ldr	r3, [r7, #20]
 8001c08:	2b00      	cmp	r3, #0
 8001c0a:	d107      	bne.n	8001c1c <vTaskDelay+0x88>
 8001c0c:	4b09      	ldr	r3, [pc, #36]	; (8001c34 <vTaskDelay+0xa0>)
 8001c0e:	f04f 5280 	mov.w	r2, #268435456	; 0x10000000
 8001c12:	601a      	str	r2, [r3, #0]
 8001c14:	f3bf 8f4f 	dsb	sy
 8001c18:	f3bf 8f6f 	isb	sy
 8001c1c:	bf00      	nop
 8001c1e:	3718      	adds	r7, #24
 8001c20:	46bd      	mov	sp, r7
 8001c22:	bd80      	pop	{r7, pc}
 8001c24:	20000ad4 	ldrdcs	r0, [r0], -r4
 8001c28:	20000ab4 			; <UNDEFINED> instruction: 0x20000ab4
 8001c2c:	200009d8 	ldrdcs	r0, [r0], -r8
 8001c30:	20000ab8 			; <UNDEFINED> instruction: 0x20000ab8
 8001c34:	e000ed04 	and	lr, r0, r4, lsl #26

08001c38 <uxTaskPriorityGet>:
 8001c38:	b580      	push	{r7, lr}
 8001c3a:	b084      	sub	sp, #16
 8001c3c:	af00      	add	r7, sp, #0
 8001c3e:	6078      	str	r0, [r7, #4]
 8001c40:	f002 fbc0 	bl	80043c4 <vPortEnterCritical>
 8001c44:	687b      	ldr	r3, [r7, #4]
 8001c46:	2b00      	cmp	r3, #0
 8001c48:	d102      	bne.n	8001c50 <uxTaskPriorityGet+0x18>
 8001c4a:	4b07      	ldr	r3, [pc, #28]	; (8001c68 <uxTaskPriorityGet+0x30>)
 8001c4c:	681b      	ldr	r3, [r3, #0]
 8001c4e:	e000      	b.n	8001c52 <uxTaskPriorityGet+0x1a>
 8001c50:	687b      	ldr	r3, [r7, #4]
 8001c52:	60fb      	str	r3, [r7, #12]
 8001c54:	68fb      	ldr	r3, [r7, #12]
 8001c56:	6adb      	ldr	r3, [r3, #44]	; 0x2c
 8001c58:	60bb      	str	r3, [r7, #8]
 8001c5a:	f002 fbe1 	bl	8004420 <vPortExitCritical>
 8001c5e:	68bb      	ldr	r3, [r7, #8]
 8001c60:	4618      	mov	r0, r3
 8001c62:	3710      	adds	r7, #16
 8001c64:	46bd      	mov	sp, r7
 8001c66:	bd80      	pop	{r7, pc}
 8001c68:	200009d8 	ldrdcs	r0, [r0], -r8

08001c6c <uxTaskPriorityGetFromISR>:
 8001c6c:	b580      	push	{r7, lr}
 8001c6e:	b088      	sub	sp, #32
 8001c70:	af00      	add	r7, sp, #0
 8001c72:	6078      	str	r0, [r7, #4]
 8001c74:	f002 fc74 	bl	8004560 <vPortValidateInterruptPriority>
 8001c78:	f3ef 8211 	mrs	r2, BASEPRI
 8001c7c:	f04f 0310 	mov.w	r3, #16
 8001c80:	f383 8811 	msr	BASEPRI, r3
 8001c84:	f3bf 8f6f 	isb	sy
 8001c88:	f3bf 8f4f 	dsb	sy
 8001c8c:	613a      	str	r2, [r7, #16]
 8001c8e:	60fb      	str	r3, [r7, #12]
 8001c90:	693b      	ldr	r3, [r7, #16]
 8001c92:	61fb      	str	r3, [r7, #28]
 8001c94:	687b      	ldr	r3, [r7, #4]
 8001c96:	2b00      	cmp	r3, #0
 8001c98:	d102      	bne.n	8001ca0 <uxTaskPriorityGetFromISR+0x34>
 8001c9a:	4b09      	ldr	r3, [pc, #36]	; (8001cc0 <uxTaskPriorityGetFromISR+0x54>)
 8001c9c:	681b      	ldr	r3, [r3, #0]
 8001c9e:	e000      	b.n	8001ca2 <uxTaskPriorityGetFromISR+0x36>
 8001ca0:	687b      	ldr	r3, [r7, #4]
 8001ca2:	61bb      	str	r3, [r7, #24]
 8001ca4:	69bb      	ldr	r3, [r7, #24]
 8001ca6:	6adb      	ldr	r3, [r3, #44]	; 0x2c
 8001ca8:	617b      	str	r3, [r7, #20]
 8001caa:	69fb      	ldr	r3, [r7, #28]
 8001cac:	60bb      	str	r3, [r7, #8]
 8001cae:	68bb      	ldr	r3, [r7, #8]
 8001cb0:	f383 8811 	msr	BASEPRI, r3
 8001cb4:	697b      	ldr	r3, [r7, #20]
 8001cb6:	4618      	mov	r0, r3
 8001cb8:	3720      	adds	r7, #32
 8001cba:	46bd      	mov	sp, r7
 8001cbc:	bd80      	pop	{r7, pc}
 8001cbe:	bf00      	nop
 8001cc0:	200009d8 	ldrdcs	r0, [r0], -r8

08001cc4 <vTaskPrioritySet>:
 8001cc4:	b580      	push	{r7, lr}
 8001cc6:	b088      	sub	sp, #32
 8001cc8:	af00      	add	r7, sp, #0
 8001cca:	6078      	str	r0, [r7, #4]
 8001ccc:	6039      	str	r1, [r7, #0]
 8001cce:	2300      	movs	r3, #0
 8001cd0:	61fb      	str	r3, [r7, #28]
 8001cd2:	683b      	ldr	r3, [r7, #0]
 8001cd4:	2b04      	cmp	r3, #4
 8001cd6:	d909      	bls.n	8001cec <vTaskPrioritySet+0x28>
 8001cd8:	f04f 0310 	mov.w	r3, #16
 8001cdc:	f383 8811 	msr	BASEPRI, r3
 8001ce0:	f3bf 8f6f 	isb	sy
 8001ce4:	f3bf 8f4f 	dsb	sy
 8001ce8:	60fb      	str	r3, [r7, #12]
 8001cea:	e7fe      	b.n	8001cea <vTaskPrioritySet+0x26>
 8001cec:	683b      	ldr	r3, [r7, #0]
 8001cee:	2b04      	cmp	r3, #4
 8001cf0:	d901      	bls.n	8001cf6 <vTaskPrioritySet+0x32>
 8001cf2:	2304      	movs	r3, #4
 8001cf4:	603b      	str	r3, [r7, #0]
 8001cf6:	f002 fb65 	bl	80043c4 <vPortEnterCritical>
 8001cfa:	687b      	ldr	r3, [r7, #4]
 8001cfc:	2b00      	cmp	r3, #0
 8001cfe:	d102      	bne.n	8001d06 <vTaskPrioritySet+0x42>
 8001d00:	4b43      	ldr	r3, [pc, #268]	; (8001e10 <vTaskPrioritySet+0x14c>)
 8001d02:	681b      	ldr	r3, [r3, #0]
 8001d04:	e000      	b.n	8001d08 <vTaskPrioritySet+0x44>
 8001d06:	687b      	ldr	r3, [r7, #4]
 8001d08:	61bb      	str	r3, [r7, #24]
 8001d0a:	69bb      	ldr	r3, [r7, #24]
 8001d0c:	6cdb      	ldr	r3, [r3, #76]	; 0x4c
 8001d0e:	617b      	str	r3, [r7, #20]
 8001d10:	697a      	ldr	r2, [r7, #20]
 8001d12:	683b      	ldr	r3, [r7, #0]
 8001d14:	429a      	cmp	r2, r3
 8001d16:	d074      	beq.n	8001e02 <vTaskPrioritySet+0x13e>
 8001d18:	683a      	ldr	r2, [r7, #0]
 8001d1a:	697b      	ldr	r3, [r7, #20]
 8001d1c:	429a      	cmp	r2, r3
 8001d1e:	d90d      	bls.n	8001d3c <vTaskPrioritySet+0x78>
 8001d20:	4b3b      	ldr	r3, [pc, #236]	; (8001e10 <vTaskPrioritySet+0x14c>)
 8001d22:	681b      	ldr	r3, [r3, #0]
 8001d24:	69ba      	ldr	r2, [r7, #24]
 8001d26:	429a      	cmp	r2, r3
 8001d28:	d00f      	beq.n	8001d4a <vTaskPrioritySet+0x86>
 8001d2a:	4b39      	ldr	r3, [pc, #228]	; (8001e10 <vTaskPrioritySet+0x14c>)
 8001d2c:	681b      	ldr	r3, [r3, #0]
 8001d2e:	6adb      	ldr	r3, [r3, #44]	; 0x2c
 8001d30:	683a      	ldr	r2, [r7, #0]
 8001d32:	429a      	cmp	r2, r3
 8001d34:	d309      	bcc.n	8001d4a <vTaskPrioritySet+0x86>
 8001d36:	2301      	movs	r3, #1
 8001d38:	61fb      	str	r3, [r7, #28]
 8001d3a:	e006      	b.n	8001d4a <vTaskPrioritySet+0x86>
 8001d3c:	4b34      	ldr	r3, [pc, #208]	; (8001e10 <vTaskPrioritySet+0x14c>)
 8001d3e:	681b      	ldr	r3, [r3, #0]
 8001d40:	69ba      	ldr	r2, [r7, #24]
 8001d42:	429a      	cmp	r2, r3
 8001d44:	d101      	bne.n	8001d4a <vTaskPrioritySet+0x86>
 8001d46:	2301      	movs	r3, #1
 8001d48:	61fb      	str	r3, [r7, #28]
 8001d4a:	69bb      	ldr	r3, [r7, #24]
 8001d4c:	6adb      	ldr	r3, [r3, #44]	; 0x2c
 8001d4e:	613b      	str	r3, [r7, #16]
 8001d50:	69bb      	ldr	r3, [r7, #24]
 8001d52:	6cda      	ldr	r2, [r3, #76]	; 0x4c
 8001d54:	69bb      	ldr	r3, [r7, #24]
 8001d56:	6adb      	ldr	r3, [r3, #44]	; 0x2c
 8001d58:	429a      	cmp	r2, r3
 8001d5a:	d102      	bne.n	8001d62 <vTaskPrioritySet+0x9e>
 8001d5c:	69bb      	ldr	r3, [r7, #24]
 8001d5e:	683a      	ldr	r2, [r7, #0]
 8001d60:	62da      	str	r2, [r3, #44]	; 0x2c
 8001d62:	69bb      	ldr	r3, [r7, #24]
 8001d64:	683a      	ldr	r2, [r7, #0]
 8001d66:	64da      	str	r2, [r3, #76]	; 0x4c
 8001d68:	69bb      	ldr	r3, [r7, #24]
 8001d6a:	699b      	ldr	r3, [r3, #24]
 8001d6c:	2b00      	cmp	r3, #0
 8001d6e:	db04      	blt.n	8001d7a <vTaskPrioritySet+0xb6>
 8001d70:	683b      	ldr	r3, [r7, #0]
 8001d72:	f1c3 0205 	rsb	r2, r3, #5
 8001d76:	69bb      	ldr	r3, [r7, #24]
 8001d78:	619a      	str	r2, [r3, #24]
 8001d7a:	69bb      	ldr	r3, [r7, #24]
 8001d7c:	6959      	ldr	r1, [r3, #20]
 8001d7e:	693a      	ldr	r2, [r7, #16]
 8001d80:	4613      	mov	r3, r2
 8001d82:	009b      	lsls	r3, r3, #2
 8001d84:	4413      	add	r3, r2
 8001d86:	009b      	lsls	r3, r3, #2
 8001d88:	4a22      	ldr	r2, [pc, #136]	; (8001e14 <vTaskPrioritySet+0x150>)
 8001d8a:	4413      	add	r3, r2
 8001d8c:	4299      	cmp	r1, r3
 8001d8e:	d101      	bne.n	8001d94 <vTaskPrioritySet+0xd0>
 8001d90:	2301      	movs	r3, #1
 8001d92:	e000      	b.n	8001d96 <vTaskPrioritySet+0xd2>
 8001d94:	2300      	movs	r3, #0
 8001d96:	2b00      	cmp	r3, #0
 8001d98:	d028      	beq.n	8001dec <vTaskPrioritySet+0x128>
 8001d9a:	69bb      	ldr	r3, [r7, #24]
 8001d9c:	3304      	adds	r3, #4
 8001d9e:	4618      	mov	r0, r3
 8001da0:	f7fe fcfc 	bl	800079c <uxListRemove>
 8001da4:	4603      	mov	r3, r0
 8001da6:	2b00      	cmp	r3, #0
 8001da8:	d109      	bne.n	8001dbe <vTaskPrioritySet+0xfa>
 8001daa:	2201      	movs	r2, #1
 8001dac:	693b      	ldr	r3, [r7, #16]
 8001dae:	fa02 f303 	lsl.w	r3, r2, r3
 8001db2:	43da      	mvns	r2, r3
 8001db4:	4b18      	ldr	r3, [pc, #96]	; (8001e18 <vTaskPrioritySet+0x154>)
 8001db6:	681b      	ldr	r3, [r3, #0]
 8001db8:	4013      	ands	r3, r2
 8001dba:	4a17      	ldr	r2, [pc, #92]	; (8001e18 <vTaskPrioritySet+0x154>)
 8001dbc:	6013      	str	r3, [r2, #0]
 8001dbe:	69bb      	ldr	r3, [r7, #24]
 8001dc0:	6adb      	ldr	r3, [r3, #44]	; 0x2c
 8001dc2:	2201      	movs	r2, #1
 8001dc4:	409a      	lsls	r2, r3
 8001dc6:	4b14      	ldr	r3, [pc, #80]	; (8001e18 <vTaskPrioritySet+0x154>)
 8001dc8:	681b      	ldr	r3, [r3, #0]
 8001dca:	4313      	orrs	r3, r2
 8001dcc:	4a12      	ldr	r2, [pc, #72]	; (8001e18 <vTaskPrioritySet+0x154>)
 8001dce:	6013      	str	r3, [r2, #0]
 8001dd0:	69bb      	ldr	r3, [r7, #24]
 8001dd2:	6ada      	ldr	r2, [r3, #44]	; 0x2c
 8001dd4:	4613      	mov	r3, r2
 8001dd6:	009b      	lsls	r3, r3, #2
 8001dd8:	4413      	add	r3, r2
 8001dda:	009b      	lsls	r3, r3, #2
 8001ddc:	4a0d      	ldr	r2, [pc, #52]	; (8001e14 <vTaskPrioritySet+0x150>)
 8001dde:	441a      	add	r2, r3
 8001de0:	69bb      	ldr	r3, [r7, #24]
 8001de2:	3304      	adds	r3, #4
 8001de4:	4619      	mov	r1, r3
 8001de6:	4610      	mov	r0, r2
 8001de8:	f7fe fc7b 	bl	80006e2 <vListInsertEnd>
 8001dec:	69fb      	ldr	r3, [r7, #28]
 8001dee:	2b01      	cmp	r3, #1
 8001df0:	d107      	bne.n	8001e02 <vTaskPrioritySet+0x13e>
 8001df2:	4b0a      	ldr	r3, [pc, #40]	; (8001e1c <vTaskPrioritySet+0x158>)
 8001df4:	f04f 5280 	mov.w	r2, #268435456	; 0x10000000
 8001df8:	601a      	str	r2, [r3, #0]
 8001dfa:	f3bf 8f4f 	dsb	sy
 8001dfe:	f3bf 8f6f 	isb	sy
 8001e02:	f002 fb0d 	bl	8004420 <vPortExitCritical>
 8001e06:	bf00      	nop
 8001e08:	3720      	adds	r7, #32
 8001e0a:	46bd      	mov	sp, r7
 8001e0c:	bd80      	pop	{r7, pc}
 8001e0e:	bf00      	nop
 8001e10:	200009d8 	ldrdcs	r0, [r0], -r8
 8001e14:	200009dc 	ldrdcs	r0, [r0], -ip
 8001e18:	20000ab8 			; <UNDEFINED> instruction: 0x20000ab8
 8001e1c:	e000ed04 	and	lr, r0, r4, lsl #26

08001e20 <vTaskSuspend>:
 8001e20:	b580      	push	{r7, lr}
 8001e22:	b084      	sub	sp, #16
 8001e24:	af00      	add	r7, sp, #0
 8001e26:	6078      	str	r0, [r7, #4]
 8001e28:	f002 facc 	bl	80043c4 <vPortEnterCritical>
 8001e2c:	687b      	ldr	r3, [r7, #4]
 8001e2e:	2b00      	cmp	r3, #0
 8001e30:	d102      	bne.n	8001e38 <vTaskSuspend+0x18>
 8001e32:	4b37      	ldr	r3, [pc, #220]	; (8001f10 <vTaskSuspend+0xf0>)
 8001e34:	681b      	ldr	r3, [r3, #0]
 8001e36:	e000      	b.n	8001e3a <vTaskSuspend+0x1a>
 8001e38:	687b      	ldr	r3, [r7, #4]
 8001e3a:	60fb      	str	r3, [r7, #12]
 8001e3c:	68fb      	ldr	r3, [r7, #12]
 8001e3e:	3304      	adds	r3, #4
 8001e40:	4618      	mov	r0, r3
 8001e42:	f7fe fcab 	bl	800079c <uxListRemove>
 8001e46:	4603      	mov	r3, r0
 8001e48:	2b00      	cmp	r3, #0
 8001e4a:	d115      	bne.n	8001e78 <vTaskSuspend+0x58>
 8001e4c:	68fb      	ldr	r3, [r7, #12]
 8001e4e:	6ada      	ldr	r2, [r3, #44]	; 0x2c
 8001e50:	4930      	ldr	r1, [pc, #192]	; (8001f14 <vTaskSuspend+0xf4>)
 8001e52:	4613      	mov	r3, r2
 8001e54:	009b      	lsls	r3, r3, #2
 8001e56:	4413      	add	r3, r2
 8001e58:	009b      	lsls	r3, r3, #2
 8001e5a:	440b      	add	r3, r1
 8001e5c:	681b      	ldr	r3, [r3, #0]
 8001e5e:	2b00      	cmp	r3, #0
 8001e60:	d10a      	bne.n	8001e78 <vTaskSuspend+0x58>
 8001e62:	68fb      	ldr	r3, [r7, #12]
 8001e64:	6adb      	ldr	r3, [r3, #44]	; 0x2c
 8001e66:	2201      	movs	r2, #1
 8001e68:	fa02 f303 	lsl.w	r3, r2, r3
 8001e6c:	43da      	mvns	r2, r3
 8001e6e:	4b2a      	ldr	r3, [pc, #168]	; (8001f18 <vTaskSuspend+0xf8>)
 8001e70:	681b      	ldr	r3, [r3, #0]
 8001e72:	4013      	ands	r3, r2
 8001e74:	4a28      	ldr	r2, [pc, #160]	; (8001f18 <vTaskSuspend+0xf8>)
 8001e76:	6013      	str	r3, [r2, #0]
 8001e78:	68fb      	ldr	r3, [r7, #12]
 8001e7a:	6a9b      	ldr	r3, [r3, #40]	; 0x28
 8001e7c:	2b00      	cmp	r3, #0
 8001e7e:	d004      	beq.n	8001e8a <vTaskSuspend+0x6a>
 8001e80:	68fb      	ldr	r3, [r7, #12]
 8001e82:	3318      	adds	r3, #24
 8001e84:	4618      	mov	r0, r3
 8001e86:	f7fe fc89 	bl	800079c <uxListRemove>
 8001e8a:	68fb      	ldr	r3, [r7, #12]
 8001e8c:	3304      	adds	r3, #4
 8001e8e:	4619      	mov	r1, r3
 8001e90:	4822      	ldr	r0, [pc, #136]	; (8001f1c <vTaskSuspend+0xfc>)
 8001e92:	f7fe fc26 	bl	80006e2 <vListInsertEnd>
 8001e96:	f002 fac3 	bl	8004420 <vPortExitCritical>
 8001e9a:	4b1d      	ldr	r3, [pc, #116]	; (8001f10 <vTaskSuspend+0xf0>)
 8001e9c:	681b      	ldr	r3, [r3, #0]
 8001e9e:	68fa      	ldr	r2, [r7, #12]
 8001ea0:	429a      	cmp	r2, r3
 8001ea2:	d127      	bne.n	8001ef4 <vTaskSuspend+0xd4>
 8001ea4:	4b1e      	ldr	r3, [pc, #120]	; (8001f20 <vTaskSuspend+0x100>)
 8001ea6:	681b      	ldr	r3, [r3, #0]
 8001ea8:	2b00      	cmp	r3, #0
 8001eaa:	d016      	beq.n	8001eda <vTaskSuspend+0xba>
 8001eac:	4b1d      	ldr	r3, [pc, #116]	; (8001f24 <vTaskSuspend+0x104>)
 8001eae:	681b      	ldr	r3, [r3, #0]
 8001eb0:	2b00      	cmp	r3, #0
 8001eb2:	d009      	beq.n	8001ec8 <vTaskSuspend+0xa8>
 8001eb4:	f04f 0310 	mov.w	r3, #16
 8001eb8:	f383 8811 	msr	BASEPRI, r3
 8001ebc:	f3bf 8f6f 	isb	sy
 8001ec0:	f3bf 8f4f 	dsb	sy
 8001ec4:	60bb      	str	r3, [r7, #8]
 8001ec6:	e7fe      	b.n	8001ec6 <vTaskSuspend+0xa6>
 8001ec8:	4b17      	ldr	r3, [pc, #92]	; (8001f28 <vTaskSuspend+0x108>)
 8001eca:	f04f 5280 	mov.w	r2, #268435456	; 0x10000000
 8001ece:	601a      	str	r2, [r3, #0]
 8001ed0:	f3bf 8f4f 	dsb	sy
 8001ed4:	f3bf 8f6f 	isb	sy
 8001ed8:	e016      	b.n	8001f08 <vTaskSuspend+0xe8>
 8001eda:	4b10      	ldr	r3, [pc, #64]	; (8001f1c <vTaskSuspend+0xfc>)
 8001edc:	681a      	ldr	r2, [r3, #0]
 8001ede:	4b13      	ldr	r3, [pc, #76]	; (8001f2c <vTaskSuspend+0x10c>)
 8001ee0:	681b      	ldr	r3, [r3, #0]
 8001ee2:	429a      	cmp	r2, r3
 8001ee4:	d103      	bne.n	8001eee <vTaskSuspend+0xce>
 8001ee6:	4b0a      	ldr	r3, [pc, #40]	; (8001f10 <vTaskSuspend+0xf0>)
 8001ee8:	2200      	movs	r2, #0
 8001eea:	601a      	str	r2, [r3, #0]
 8001eec:	e00c      	b.n	8001f08 <vTaskSuspend+0xe8>
 8001eee:	f000 fbbd 	bl	800266c <vTaskSwitchContext>
 8001ef2:	e009      	b.n	8001f08 <vTaskSuspend+0xe8>
 8001ef4:	4b0a      	ldr	r3, [pc, #40]	; (8001f20 <vTaskSuspend+0x100>)
 8001ef6:	681b      	ldr	r3, [r3, #0]
 8001ef8:	2b00      	cmp	r3, #0
 8001efa:	d005      	beq.n	8001f08 <vTaskSuspend+0xe8>
 8001efc:	f002 fa62 	bl	80043c4 <vPortEnterCritical>
 8001f00:	f001 f889 	bl	8003016 <prvResetNextTaskUnblockTime>
 8001f04:	f002 fa8c 	bl	8004420 <vPortExitCritical>
 8001f08:	bf00      	nop
 8001f0a:	3710      	adds	r7, #16
 8001f0c:	46bd      	mov	sp, r7
 8001f0e:	bd80      	pop	{r7, pc}
 8001f10:	200009d8 	ldrdcs	r0, [r0], -r8
 8001f14:	200009dc 	ldrdcs	r0, [r0], -ip
 8001f18:	20000ab8 			; <UNDEFINED> instruction: 0x20000ab8
 8001f1c:	20000a9c 	mulcs	r0, ip, sl
 8001f20:	20000abc 			; <UNDEFINED> instruction: 0x20000abc
 8001f24:	20000ad4 	ldrdcs	r0, [r0], -r4
 8001f28:	e000ed04 	and	lr, r0, r4, lsl #26
 8001f2c:	20000ab0 			; <UNDEFINED> instruction: 0x20000ab0

08001f30 <prvTaskIsTaskSuspended>:
 8001f30:	b480      	push	{r7}
 8001f32:	b087      	sub	sp, #28
 8001f34:	af00      	add	r7, sp, #0
 8001f36:	6078      	str	r0, [r7, #4]
 8001f38:	2300      	movs	r3, #0
 8001f3a:	617b      	str	r3, [r7, #20]
 8001f3c:	687b      	ldr	r3, [r7, #4]
 8001f3e:	613b      	str	r3, [r7, #16]
 8001f40:	687b      	ldr	r3, [r7, #4]
 8001f42:	2b00      	cmp	r3, #0
 8001f44:	d109      	bne.n	8001f5a <prvTaskIsTaskSuspended+0x2a>
 8001f46:	f04f 0310 	mov.w	r3, #16
 8001f4a:	f383 8811 	msr	BASEPRI, r3
 8001f4e:	f3bf 8f6f 	isb	sy
 8001f52:	f3bf 8f4f 	dsb	sy
 8001f56:	60fb      	str	r3, [r7, #12]
 8001f58:	e7fe      	b.n	8001f58 <prvTaskIsTaskSuspended+0x28>
 8001f5a:	693b      	ldr	r3, [r7, #16]
 8001f5c:	695b      	ldr	r3, [r3, #20]
 8001f5e:	4a0f      	ldr	r2, [pc, #60]	; (8001f9c <prvTaskIsTaskSuspended+0x6c>)
 8001f60:	4293      	cmp	r3, r2
 8001f62:	d101      	bne.n	8001f68 <prvTaskIsTaskSuspended+0x38>
 8001f64:	2301      	movs	r3, #1
 8001f66:	e000      	b.n	8001f6a <prvTaskIsTaskSuspended+0x3a>
 8001f68:	2300      	movs	r3, #0
 8001f6a:	2b00      	cmp	r3, #0
 8001f6c:	d00f      	beq.n	8001f8e <prvTaskIsTaskSuspended+0x5e>
 8001f6e:	693b      	ldr	r3, [r7, #16]
 8001f70:	6a9b      	ldr	r3, [r3, #40]	; 0x28
 8001f72:	4a0b      	ldr	r2, [pc, #44]	; (8001fa0 <prvTaskIsTaskSuspended+0x70>)
 8001f74:	4293      	cmp	r3, r2
 8001f76:	d00a      	beq.n	8001f8e <prvTaskIsTaskSuspended+0x5e>
 8001f78:	693b      	ldr	r3, [r7, #16]
 8001f7a:	6a9b      	ldr	r3, [r3, #40]	; 0x28
 8001f7c:	2b00      	cmp	r3, #0
 8001f7e:	d101      	bne.n	8001f84 <prvTaskIsTaskSuspended+0x54>
 8001f80:	2301      	movs	r3, #1
 8001f82:	e000      	b.n	8001f86 <prvTaskIsTaskSuspended+0x56>
 8001f84:	2300      	movs	r3, #0
 8001f86:	2b00      	cmp	r3, #0
 8001f88:	d001      	beq.n	8001f8e <prvTaskIsTaskSuspended+0x5e>
 8001f8a:	2301      	movs	r3, #1
 8001f8c:	617b      	str	r3, [r7, #20]
 8001f8e:	697b      	ldr	r3, [r7, #20]
 8001f90:	4618      	mov	r0, r3
 8001f92:	371c      	adds	r7, #28
 8001f94:	46bd      	mov	sp, r7
 8001f96:	f85d 7b04 	ldr.w	r7, [sp], #4
 8001f9a:	4770      	bx	lr
 8001f9c:	20000a9c 	mulcs	r0, ip, sl
 8001fa0:	20000a70 	andcs	r0, r0, r0, ror sl

08001fa4 <vTaskResume>:
 8001fa4:	b580      	push	{r7, lr}
 8001fa6:	b084      	sub	sp, #16
 8001fa8:	af00      	add	r7, sp, #0
 8001faa:	6078      	str	r0, [r7, #4]
 8001fac:	687b      	ldr	r3, [r7, #4]
 8001fae:	60fb      	str	r3, [r7, #12]
 8001fb0:	687b      	ldr	r3, [r7, #4]
 8001fb2:	2b00      	cmp	r3, #0
 8001fb4:	d109      	bne.n	8001fca <vTaskResume+0x26>
 8001fb6:	f04f 0310 	mov.w	r3, #16
 8001fba:	f383 8811 	msr	BASEPRI, r3
 8001fbe:	f3bf 8f6f 	isb	sy
 8001fc2:	f3bf 8f4f 	dsb	sy
 8001fc6:	60bb      	str	r3, [r7, #8]
 8001fc8:	e7fe      	b.n	8001fc8 <vTaskResume+0x24>
 8001fca:	68fb      	ldr	r3, [r7, #12]
 8001fcc:	2b00      	cmp	r3, #0
 8001fce:	d039      	beq.n	8002044 <vTaskResume+0xa0>
 8001fd0:	4b1e      	ldr	r3, [pc, #120]	; (800204c <vTaskResume+0xa8>)
 8001fd2:	681b      	ldr	r3, [r3, #0]
 8001fd4:	68fa      	ldr	r2, [r7, #12]
 8001fd6:	429a      	cmp	r2, r3
 8001fd8:	d034      	beq.n	8002044 <vTaskResume+0xa0>
 8001fda:	f002 f9f3 	bl	80043c4 <vPortEnterCritical>
 8001fde:	68f8      	ldr	r0, [r7, #12]
 8001fe0:	f7ff ffa6 	bl	8001f30 <prvTaskIsTaskSuspended>
 8001fe4:	4603      	mov	r3, r0
 8001fe6:	2b01      	cmp	r3, #1
 8001fe8:	d12a      	bne.n	8002040 <vTaskResume+0x9c>
 8001fea:	68fb      	ldr	r3, [r7, #12]
 8001fec:	3304      	adds	r3, #4
 8001fee:	4618      	mov	r0, r3
 8001ff0:	f7fe fbd4 	bl	800079c <uxListRemove>
 8001ff4:	68fb      	ldr	r3, [r7, #12]
 8001ff6:	6adb      	ldr	r3, [r3, #44]	; 0x2c
 8001ff8:	2201      	movs	r2, #1
 8001ffa:	409a      	lsls	r2, r3
 8001ffc:	4b14      	ldr	r3, [pc, #80]	; (8002050 <vTaskResume+0xac>)
 8001ffe:	681b      	ldr	r3, [r3, #0]
 8002000:	4313      	orrs	r3, r2
 8002002:	4a13      	ldr	r2, [pc, #76]	; (8002050 <vTaskResume+0xac>)
 8002004:	6013      	str	r3, [r2, #0]
 8002006:	68fb      	ldr	r3, [r7, #12]
 8002008:	6ada      	ldr	r2, [r3, #44]	; 0x2c
 800200a:	4613      	mov	r3, r2
 800200c:	009b      	lsls	r3, r3, #2
 800200e:	4413      	add	r3, r2
 8002010:	009b      	lsls	r3, r3, #2
 8002012:	4a10      	ldr	r2, [pc, #64]	; (8002054 <vTaskResume+0xb0>)
 8002014:	441a      	add	r2, r3
 8002016:	68fb      	ldr	r3, [r7, #12]
 8002018:	3304      	adds	r3, #4
 800201a:	4619      	mov	r1, r3
 800201c:	4610      	mov	r0, r2
 800201e:	f7fe fb60 	bl	80006e2 <vListInsertEnd>
 8002022:	68fb      	ldr	r3, [r7, #12]
 8002024:	6ada      	ldr	r2, [r3, #44]	; 0x2c
 8002026:	4b09      	ldr	r3, [pc, #36]	; (800204c <vTaskResume+0xa8>)
 8002028:	681b      	ldr	r3, [r3, #0]
 800202a:	6adb      	ldr	r3, [r3, #44]	; 0x2c
 800202c:	429a      	cmp	r2, r3
 800202e:	d307      	bcc.n	8002040 <vTaskResume+0x9c>
 8002030:	4b09      	ldr	r3, [pc, #36]	; (8002058 <vTaskResume+0xb4>)
 8002032:	f04f 5280 	mov.w	r2, #268435456	; 0x10000000
 8002036:	601a      	str	r2, [r3, #0]
 8002038:	f3bf 8f4f 	dsb	sy
 800203c:	f3bf 8f6f 	isb	sy
 8002040:	f002 f9ee 	bl	8004420 <vPortExitCritical>
 8002044:	bf00      	nop
 8002046:	3710      	adds	r7, #16
 8002048:	46bd      	mov	sp, r7
 800204a:	bd80      	pop	{r7, pc}
 800204c:	200009d8 	ldrdcs	r0, [r0], -r8
 8002050:	20000ab8 			; <UNDEFINED> instruction: 0x20000ab8
 8002054:	200009dc 	ldrdcs	r0, [r0], -ip
 8002058:	e000ed04 	and	lr, r0, r4, lsl #26

0800205c <xTaskResumeFromISR>:
 800205c:	b580      	push	{r7, lr}
 800205e:	b08a      	sub	sp, #40	; 0x28
 8002060:	af00      	add	r7, sp, #0
 8002062:	6078      	str	r0, [r7, #4]
 8002064:	2300      	movs	r3, #0
 8002066:	627b      	str	r3, [r7, #36]	; 0x24
 8002068:	687b      	ldr	r3, [r7, #4]
 800206a:	623b      	str	r3, [r7, #32]
 800206c:	687b      	ldr	r3, [r7, #4]
 800206e:	2b00      	cmp	r3, #0
 8002070:	d109      	bne.n	8002086 <xTaskResumeFromISR+0x2a>
 8002072:	f04f 0310 	mov.w	r3, #16
 8002076:	f383 8811 	msr	BASEPRI, r3
 800207a:	f3bf 8f6f 	isb	sy
 800207e:	f3bf 8f4f 	dsb	sy
 8002082:	61bb      	str	r3, [r7, #24]
 8002084:	e7fe      	b.n	8002084 <xTaskResumeFromISR+0x28>
 8002086:	f002 fa6b 	bl	8004560 <vPortValidateInterruptPriority>
 800208a:	f3ef 8211 	mrs	r2, BASEPRI
 800208e:	f04f 0310 	mov.w	r3, #16
 8002092:	f383 8811 	msr	BASEPRI, r3
 8002096:	f3bf 8f6f 	isb	sy
 800209a:	f3bf 8f4f 	dsb	sy
 800209e:	617a      	str	r2, [r7, #20]
 80020a0:	613b      	str	r3, [r7, #16]
 80020a2:	697b      	ldr	r3, [r7, #20]
 80020a4:	61fb      	str	r3, [r7, #28]
 80020a6:	6a38      	ldr	r0, [r7, #32]
 80020a8:	f7ff ff42 	bl	8001f30 <prvTaskIsTaskSuspended>
 80020ac:	4603      	mov	r3, r0
 80020ae:	2b01      	cmp	r3, #1
 80020b0:	d12f      	bne.n	8002112 <xTaskResumeFromISR+0xb6>
 80020b2:	4b1d      	ldr	r3, [pc, #116]	; (8002128 <xTaskResumeFromISR+0xcc>)
 80020b4:	681b      	ldr	r3, [r3, #0]
 80020b6:	2b00      	cmp	r3, #0
 80020b8:	d125      	bne.n	8002106 <xTaskResumeFromISR+0xaa>
 80020ba:	6a3b      	ldr	r3, [r7, #32]
 80020bc:	6ada      	ldr	r2, [r3, #44]	; 0x2c
 80020be:	4b1b      	ldr	r3, [pc, #108]	; (800212c <xTaskResumeFromISR+0xd0>)
 80020c0:	681b      	ldr	r3, [r3, #0]
 80020c2:	6adb      	ldr	r3, [r3, #44]	; 0x2c
 80020c4:	429a      	cmp	r2, r3
 80020c6:	d301      	bcc.n	80020cc <xTaskResumeFromISR+0x70>
 80020c8:	2301      	movs	r3, #1
 80020ca:	627b      	str	r3, [r7, #36]	; 0x24
 80020cc:	6a3b      	ldr	r3, [r7, #32]
 80020ce:	3304      	adds	r3, #4
 80020d0:	4618      	mov	r0, r3
 80020d2:	f7fe fb63 	bl	800079c <uxListRemove>
 80020d6:	6a3b      	ldr	r3, [r7, #32]
 80020d8:	6adb      	ldr	r3, [r3, #44]	; 0x2c
 80020da:	2201      	movs	r2, #1
 80020dc:	409a      	lsls	r2, r3
 80020de:	4b14      	ldr	r3, [pc, #80]	; (8002130 <xTaskResumeFromISR+0xd4>)
 80020e0:	681b      	ldr	r3, [r3, #0]
 80020e2:	4313      	orrs	r3, r2
 80020e4:	4a12      	ldr	r2, [pc, #72]	; (8002130 <xTaskResumeFromISR+0xd4>)
 80020e6:	6013      	str	r3, [r2, #0]
 80020e8:	6a3b      	ldr	r3, [r7, #32]
 80020ea:	6ada      	ldr	r2, [r3, #44]	; 0x2c
 80020ec:	4613      	mov	r3, r2
 80020ee:	009b      	lsls	r3, r3, #2
 80020f0:	4413      	add	r3, r2
 80020f2:	009b      	lsls	r3, r3, #2
 80020f4:	4a0f      	ldr	r2, [pc, #60]	; (8002134 <xTaskResumeFromISR+0xd8>)
 80020f6:	441a      	add	r2, r3
 80020f8:	6a3b      	ldr	r3, [r7, #32]
 80020fa:	3304      	adds	r3, #4
 80020fc:	4619      	mov	r1, r3
 80020fe:	4610      	mov	r0, r2
 8002100:	f7fe faef 	bl	80006e2 <vListInsertEnd>
 8002104:	e005      	b.n	8002112 <xTaskResumeFromISR+0xb6>
 8002106:	6a3b      	ldr	r3, [r7, #32]
 8002108:	3318      	adds	r3, #24
 800210a:	4619      	mov	r1, r3
 800210c:	480a      	ldr	r0, [pc, #40]	; (8002138 <xTaskResumeFromISR+0xdc>)
 800210e:	f7fe fae8 	bl	80006e2 <vListInsertEnd>
 8002112:	69fb      	ldr	r3, [r7, #28]
 8002114:	60fb      	str	r3, [r7, #12]
 8002116:	68fb      	ldr	r3, [r7, #12]
 8002118:	f383 8811 	msr	BASEPRI, r3
 800211c:	6a7b      	ldr	r3, [r7, #36]	; 0x24
 800211e:	4618      	mov	r0, r3
 8002120:	3728      	adds	r7, #40	; 0x28
 8002122:	46bd      	mov	sp, r7
 8002124:	bd80      	pop	{r7, pc}
 8002126:	bf00      	nop
 8002128:	20000ad4 	ldrdcs	r0, [r0], -r4
 800212c:	200009d8 	ldrdcs	r0, [r0], -r8
 8002130:	20000ab8 			; <UNDEFINED> instruction: 0x20000ab8
 8002134:	200009dc 	ldrdcs	r0, [r0], -ip
 8002138:	20000a70 	andcs	r0, r0, r0, ror sl

0800213c <vTaskStartScheduler>:
 800213c:	b580      	push	{r7, lr}
 800213e:	b088      	sub	sp, #32
 8002140:	af04      	add	r7, sp, #16
 8002142:	2300      	movs	r3, #0
 8002144:	9303      	str	r3, [sp, #12]
 8002146:	2300      	movs	r3, #0
 8002148:	9302      	str	r3, [sp, #8]
 800214a:	2300      	movs	r3, #0
 800214c:	9301      	str	r3, [sp, #4]
 800214e:	2300      	movs	r3, #0
 8002150:	9300      	str	r3, [sp, #0]
 8002152:	2300      	movs	r3, #0
 8002154:	2280      	movs	r2, #128	; 0x80
 8002156:	491a      	ldr	r1, [pc, #104]	; (80021c0 <vTaskStartScheduler+0x84>)
 8002158:	481a      	ldr	r0, [pc, #104]	; (80021c4 <vTaskStartScheduler+0x88>)
 800215a:	f7ff fb37 	bl	80017cc <xTaskGenericCreate>
 800215e:	60f8      	str	r0, [r7, #12]
 8002160:	68fb      	ldr	r3, [r7, #12]
 8002162:	2b01      	cmp	r3, #1
 8002164:	d102      	bne.n	800216c <vTaskStartScheduler+0x30>
 8002166:	f001 fc7f 	bl	8003a68 <xTimerCreateTimerTask>
 800216a:	60f8      	str	r0, [r7, #12]
 800216c:	68fb      	ldr	r3, [r7, #12]
 800216e:	2b01      	cmp	r3, #1
 8002170:	d115      	bne.n	800219e <vTaskStartScheduler+0x62>
 8002172:	f04f 0310 	mov.w	r3, #16
 8002176:	f383 8811 	msr	BASEPRI, r3
 800217a:	f3bf 8f6f 	isb	sy
 800217e:	f3bf 8f4f 	dsb	sy
 8002182:	60bb      	str	r3, [r7, #8]
 8002184:	4b10      	ldr	r3, [pc, #64]	; (80021c8 <vTaskStartScheduler+0x8c>)
 8002186:	f04f 32ff 	mov.w	r2, #4294967295	; 0xffffffff
 800218a:	601a      	str	r2, [r3, #0]
 800218c:	4b0f      	ldr	r3, [pc, #60]	; (80021cc <vTaskStartScheduler+0x90>)
 800218e:	2201      	movs	r2, #1
 8002190:	601a      	str	r2, [r3, #0]
 8002192:	4b0f      	ldr	r3, [pc, #60]	; (80021d0 <vTaskStartScheduler+0x94>)
 8002194:	2200      	movs	r2, #0
 8002196:	601a      	str	r2, [r3, #0]
 8002198:	f002 f86d 	bl	8004276 <xPortStartScheduler>
 800219c:	e00c      	b.n	80021b8 <vTaskStartScheduler+0x7c>
 800219e:	68fb      	ldr	r3, [r7, #12]
 80021a0:	2b00      	cmp	r3, #0
 80021a2:	d109      	bne.n	80021b8 <vTaskStartScheduler+0x7c>
 80021a4:	f04f 0310 	mov.w	r3, #16
 80021a8:	f383 8811 	msr	BASEPRI, r3
 80021ac:	f3bf 8f6f 	isb	sy
 80021b0:	f3bf 8f4f 	dsb	sy
 80021b4:	607b      	str	r3, [r7, #4]
 80021b6:	e7fe      	b.n	80021b6 <vTaskStartScheduler+0x7a>
 80021b8:	bf00      	nop
 80021ba:	3710      	adds	r7, #16
 80021bc:	46bd      	mov	sp, r7
 80021be:	bd80      	pop	{r7, pc}
 80021c0:	08016d48 	stmdaeq	r1, {r3, r6, r8, sl, fp, sp, lr}
 80021c4:	08002c23 	stmdaeq	r0, {r0, r1, r5, sl, fp, sp}
 80021c8:	20000ad0 	ldrdcs	r0, [r0], -r0	; <UNPREDICTABLE>
 80021cc:	20000abc 			; <UNDEFINED> instruction: 0x20000abc
 80021d0:	20000ab4 			; <UNDEFINED> instruction: 0x20000ab4

080021d4 <vTaskEndScheduler>:
 80021d4:	b580      	push	{r7, lr}
 80021d6:	b082      	sub	sp, #8
 80021d8:	af00      	add	r7, sp, #0
 80021da:	f04f 0310 	mov.w	r3, #16
 80021de:	f383 8811 	msr	BASEPRI, r3
 80021e2:	f3bf 8f6f 	isb	sy
 80021e6:	f3bf 8f4f 	dsb	sy
 80021ea:	607b      	str	r3, [r7, #4]
 80021ec:	4b04      	ldr	r3, [pc, #16]	; (8002200 <vTaskEndScheduler+0x2c>)
 80021ee:	2200      	movs	r2, #0
 80021f0:	601a      	str	r2, [r3, #0]
 80021f2:	f002 f8cd 	bl	8004390 <vPortEndScheduler>
 80021f6:	bf00      	nop
 80021f8:	3708      	adds	r7, #8
 80021fa:	46bd      	mov	sp, r7
 80021fc:	bd80      	pop	{r7, pc}
 80021fe:	bf00      	nop
 8002200:	20000abc 			; <UNDEFINED> instruction: 0x20000abc

08002204 <vTaskSuspendAll>:
 8002204:	b480      	push	{r7}
 8002206:	af00      	add	r7, sp, #0
 8002208:	4b04      	ldr	r3, [pc, #16]	; (800221c <vTaskSuspendAll+0x18>)
 800220a:	681b      	ldr	r3, [r3, #0]
 800220c:	3301      	adds	r3, #1
 800220e:	4a03      	ldr	r2, [pc, #12]	; (800221c <vTaskSuspendAll+0x18>)
 8002210:	6013      	str	r3, [r2, #0]
 8002212:	bf00      	nop
 8002214:	46bd      	mov	sp, r7
 8002216:	f85d 7b04 	ldr.w	r7, [sp], #4
 800221a:	4770      	bx	lr
 800221c:	20000ad4 	ldrdcs	r0, [r0], -r4

08002220 <xTaskResumeAll>:
 8002220:	b580      	push	{r7, lr}
 8002222:	b084      	sub	sp, #16
 8002224:	af00      	add	r7, sp, #0
 8002226:	2300      	movs	r3, #0
 8002228:	60fb      	str	r3, [r7, #12]
 800222a:	4b3e      	ldr	r3, [pc, #248]	; (8002324 <xTaskResumeAll+0x104>)
 800222c:	681b      	ldr	r3, [r3, #0]
 800222e:	2b00      	cmp	r3, #0
 8002230:	d109      	bne.n	8002246 <xTaskResumeAll+0x26>
 8002232:	f04f 0310 	mov.w	r3, #16
 8002236:	f383 8811 	msr	BASEPRI, r3
 800223a:	f3bf 8f6f 	isb	sy
 800223e:	f3bf 8f4f 	dsb	sy
 8002242:	607b      	str	r3, [r7, #4]
 8002244:	e7fe      	b.n	8002244 <xTaskResumeAll+0x24>
 8002246:	f002 f8bd 	bl	80043c4 <vPortEnterCritical>
 800224a:	4b36      	ldr	r3, [pc, #216]	; (8002324 <xTaskResumeAll+0x104>)
 800224c:	681b      	ldr	r3, [r3, #0]
 800224e:	3b01      	subs	r3, #1
 8002250:	4a34      	ldr	r2, [pc, #208]	; (8002324 <xTaskResumeAll+0x104>)
 8002252:	6013      	str	r3, [r2, #0]
 8002254:	4b33      	ldr	r3, [pc, #204]	; (8002324 <xTaskResumeAll+0x104>)
 8002256:	681b      	ldr	r3, [r3, #0]
 8002258:	2b00      	cmp	r3, #0
 800225a:	d15b      	bne.n	8002314 <xTaskResumeAll+0xf4>
 800225c:	4b32      	ldr	r3, [pc, #200]	; (8002328 <xTaskResumeAll+0x108>)
 800225e:	681b      	ldr	r3, [r3, #0]
 8002260:	2b00      	cmp	r3, #0
 8002262:	d057      	beq.n	8002314 <xTaskResumeAll+0xf4>
 8002264:	e02e      	b.n	80022c4 <xTaskResumeAll+0xa4>
 8002266:	4b31      	ldr	r3, [pc, #196]	; (800232c <xTaskResumeAll+0x10c>)
 8002268:	68db      	ldr	r3, [r3, #12]
 800226a:	68db      	ldr	r3, [r3, #12]
 800226c:	60bb      	str	r3, [r7, #8]
 800226e:	68bb      	ldr	r3, [r7, #8]
 8002270:	3318      	adds	r3, #24
 8002272:	4618      	mov	r0, r3
 8002274:	f7fe fa92 	bl	800079c <uxListRemove>
 8002278:	68bb      	ldr	r3, [r7, #8]
 800227a:	3304      	adds	r3, #4
 800227c:	4618      	mov	r0, r3
 800227e:	f7fe fa8d 	bl	800079c <uxListRemove>
 8002282:	68bb      	ldr	r3, [r7, #8]
 8002284:	6adb      	ldr	r3, [r3, #44]	; 0x2c
 8002286:	2201      	movs	r2, #1
 8002288:	409a      	lsls	r2, r3
 800228a:	4b29      	ldr	r3, [pc, #164]	; (8002330 <xTaskResumeAll+0x110>)
 800228c:	681b      	ldr	r3, [r3, #0]
 800228e:	4313      	orrs	r3, r2
 8002290:	4a27      	ldr	r2, [pc, #156]	; (8002330 <xTaskResumeAll+0x110>)
 8002292:	6013      	str	r3, [r2, #0]
 8002294:	68bb      	ldr	r3, [r7, #8]
 8002296:	6ada      	ldr	r2, [r3, #44]	; 0x2c
 8002298:	4613      	mov	r3, r2
 800229a:	009b      	lsls	r3, r3, #2
 800229c:	4413      	add	r3, r2
 800229e:	009b      	lsls	r3, r3, #2
 80022a0:	4a24      	ldr	r2, [pc, #144]	; (8002334 <xTaskResumeAll+0x114>)
 80022a2:	441a      	add	r2, r3
 80022a4:	68bb      	ldr	r3, [r7, #8]
 80022a6:	3304      	adds	r3, #4
 80022a8:	4619      	mov	r1, r3
 80022aa:	4610      	mov	r0, r2
 80022ac:	f7fe fa19 	bl	80006e2 <vListInsertEnd>
 80022b0:	68bb      	ldr	r3, [r7, #8]
 80022b2:	6ada      	ldr	r2, [r3, #44]	; 0x2c
 80022b4:	4b20      	ldr	r3, [pc, #128]	; (8002338 <xTaskResumeAll+0x118>)
 80022b6:	681b      	ldr	r3, [r3, #0]
 80022b8:	6adb      	ldr	r3, [r3, #44]	; 0x2c
 80022ba:	429a      	cmp	r2, r3
 80022bc:	d302      	bcc.n	80022c4 <xTaskResumeAll+0xa4>
 80022be:	4b1f      	ldr	r3, [pc, #124]	; (800233c <xTaskResumeAll+0x11c>)
 80022c0:	2201      	movs	r2, #1
 80022c2:	601a      	str	r2, [r3, #0]
 80022c4:	4b19      	ldr	r3, [pc, #100]	; (800232c <xTaskResumeAll+0x10c>)
 80022c6:	681b      	ldr	r3, [r3, #0]
 80022c8:	2b00      	cmp	r3, #0
 80022ca:	d1cc      	bne.n	8002266 <xTaskResumeAll+0x46>
 80022cc:	4b1c      	ldr	r3, [pc, #112]	; (8002340 <xTaskResumeAll+0x120>)
 80022ce:	681b      	ldr	r3, [r3, #0]
 80022d0:	2b00      	cmp	r3, #0
 80022d2:	d011      	beq.n	80022f8 <xTaskResumeAll+0xd8>
 80022d4:	e00c      	b.n	80022f0 <xTaskResumeAll+0xd0>
 80022d6:	f000 f903 	bl	80024e0 <xTaskIncrementTick>
 80022da:	4603      	mov	r3, r0
 80022dc:	2b00      	cmp	r3, #0
 80022de:	d002      	beq.n	80022e6 <xTaskResumeAll+0xc6>
 80022e0:	4b16      	ldr	r3, [pc, #88]	; (800233c <xTaskResumeAll+0x11c>)
 80022e2:	2201      	movs	r2, #1
 80022e4:	601a      	str	r2, [r3, #0]
 80022e6:	4b16      	ldr	r3, [pc, #88]	; (8002340 <xTaskResumeAll+0x120>)
 80022e8:	681b      	ldr	r3, [r3, #0]
 80022ea:	3b01      	subs	r3, #1
 80022ec:	4a14      	ldr	r2, [pc, #80]	; (8002340 <xTaskResumeAll+0x120>)
 80022ee:	6013      	str	r3, [r2, #0]
 80022f0:	4b13      	ldr	r3, [pc, #76]	; (8002340 <xTaskResumeAll+0x120>)
 80022f2:	681b      	ldr	r3, [r3, #0]
 80022f4:	2b00      	cmp	r3, #0
 80022f6:	d1ee      	bne.n	80022d6 <xTaskResumeAll+0xb6>
 80022f8:	4b10      	ldr	r3, [pc, #64]	; (800233c <xTaskResumeAll+0x11c>)
 80022fa:	681b      	ldr	r3, [r3, #0]
 80022fc:	2b01      	cmp	r3, #1
 80022fe:	d109      	bne.n	8002314 <xTaskResumeAll+0xf4>
 8002300:	2301      	movs	r3, #1
 8002302:	60fb      	str	r3, [r7, #12]
 8002304:	4b0f      	ldr	r3, [pc, #60]	; (8002344 <xTaskResumeAll+0x124>)
 8002306:	f04f 5280 	mov.w	r2, #268435456	; 0x10000000
 800230a:	601a      	str	r2, [r3, #0]
 800230c:	f3bf 8f4f 	dsb	sy
 8002310:	f3bf 8f6f 	isb	sy
 8002314:	f002 f884 	bl	8004420 <vPortExitCritical>
 8002318:	68fb      	ldr	r3, [r7, #12]
 800231a:	4618      	mov	r0, r3
 800231c:	3710      	adds	r7, #16
 800231e:	46bd      	mov	sp, r7
 8002320:	bd80      	pop	{r7, pc}
 8002322:	bf00      	nop
 8002324:	20000ad4 	ldrdcs	r0, [r0], -r4
 8002328:	20000ab0 			; <UNDEFINED> instruction: 0x20000ab0
 800232c:	20000a70 	andcs	r0, r0, r0, ror sl
 8002330:	20000ab8 			; <UNDEFINED> instruction: 0x20000ab8
 8002334:	200009dc 	ldrdcs	r0, [r0], -ip
 8002338:	200009d8 	ldrdcs	r0, [r0], -r8
 800233c:	20000ac4 	andcs	r0, r0, r4, asr #21
 8002340:	20000ac0 	andcs	r0, r0, r0, asr #21
 8002344:	e000ed04 	and	lr, r0, r4, lsl #26

08002348 <xTaskGetTickCount>:
 8002348:	b480      	push	{r7}
 800234a:	b083      	sub	sp, #12
 800234c:	af00      	add	r7, sp, #0
 800234e:	4b05      	ldr	r3, [pc, #20]	; (8002364 <xTaskGetTickCount+0x1c>)
 8002350:	681b      	ldr	r3, [r3, #0]
 8002352:	607b      	str	r3, [r7, #4]
 8002354:	687b      	ldr	r3, [r7, #4]
 8002356:	4618      	mov	r0, r3
 8002358:	370c      	adds	r7, #12
 800235a:	46bd      	mov	sp, r7
 800235c:	f85d 7b04 	ldr.w	r7, [sp], #4
 8002360:	4770      	bx	lr
 8002362:	bf00      	nop
 8002364:	20000ab4 			; <UNDEFINED> instruction: 0x20000ab4

08002368 <xTaskGetTickCountFromISR>:
 8002368:	b580      	push	{r7, lr}
 800236a:	b082      	sub	sp, #8
 800236c:	af00      	add	r7, sp, #0
 800236e:	f002 f8f7 	bl	8004560 <vPortValidateInterruptPriority>
 8002372:	2300      	movs	r3, #0
 8002374:	607b      	str	r3, [r7, #4]
 8002376:	4b04      	ldr	r3, [pc, #16]	; (8002388 <xTaskGetTickCountFromISR+0x20>)
 8002378:	681b      	ldr	r3, [r3, #0]
 800237a:	603b      	str	r3, [r7, #0]
 800237c:	683b      	ldr	r3, [r7, #0]
 800237e:	4618      	mov	r0, r3
 8002380:	3708      	adds	r7, #8
 8002382:	46bd      	mov	sp, r7
 8002384:	bd80      	pop	{r7, pc}
 8002386:	bf00      	nop
 8002388:	20000ab4 			; <UNDEFINED> instruction: 0x20000ab4

0800238c <uxTaskGetNumberOfTasks>:
 800238c:	b480      	push	{r7}
 800238e:	af00      	add	r7, sp, #0
 8002390:	4b03      	ldr	r3, [pc, #12]	; (80023a0 <uxTaskGetNumberOfTasks+0x14>)
 8002392:	681b      	ldr	r3, [r3, #0]
 8002394:	4618      	mov	r0, r3
 8002396:	46bd      	mov	sp, r7
 8002398:	f85d 7b04 	ldr.w	r7, [sp], #4
 800239c:	4770      	bx	lr
 800239e:	bf00      	nop
 80023a0:	20000ab0 			; <UNDEFINED> instruction: 0x20000ab0

080023a4 <pcTaskGetTaskName>:
 80023a4:	b480      	push	{r7}
 80023a6:	b085      	sub	sp, #20
 80023a8:	af00      	add	r7, sp, #0
 80023aa:	6078      	str	r0, [r7, #4]
 80023ac:	687b      	ldr	r3, [r7, #4]
 80023ae:	2b00      	cmp	r3, #0
 80023b0:	d102      	bne.n	80023b8 <pcTaskGetTaskName+0x14>
 80023b2:	4b0d      	ldr	r3, [pc, #52]	; (80023e8 <pcTaskGetTaskName+0x44>)
 80023b4:	681b      	ldr	r3, [r3, #0]
 80023b6:	e000      	b.n	80023ba <pcTaskGetTaskName+0x16>
 80023b8:	687b      	ldr	r3, [r7, #4]
 80023ba:	60fb      	str	r3, [r7, #12]
 80023bc:	68fb      	ldr	r3, [r7, #12]
 80023be:	2b00      	cmp	r3, #0
 80023c0:	d109      	bne.n	80023d6 <pcTaskGetTaskName+0x32>
 80023c2:	f04f 0310 	mov.w	r3, #16
 80023c6:	f383 8811 	msr	BASEPRI, r3
 80023ca:	f3bf 8f6f 	isb	sy
 80023ce:	f3bf 8f4f 	dsb	sy
 80023d2:	60bb      	str	r3, [r7, #8]
 80023d4:	e7fe      	b.n	80023d4 <pcTaskGetTaskName+0x30>
 80023d6:	68fb      	ldr	r3, [r7, #12]
 80023d8:	3334      	adds	r3, #52	; 0x34
 80023da:	4618      	mov	r0, r3
 80023dc:	3714      	adds	r7, #20
 80023de:	46bd      	mov	sp, r7
 80023e0:	f85d 7b04 	ldr.w	r7, [sp], #4
 80023e4:	4770      	bx	lr
 80023e6:	bf00      	nop
 80023e8:	200009d8 	ldrdcs	r0, [r0], -r8

080023ec <uxTaskGetSystemState>:
 80023ec:	b580      	push	{r7, lr}
 80023ee:	b086      	sub	sp, #24
 80023f0:	af00      	add	r7, sp, #0
 80023f2:	60f8      	str	r0, [r7, #12]
 80023f4:	60b9      	str	r1, [r7, #8]
 80023f6:	607a      	str	r2, [r7, #4]
 80023f8:	2300      	movs	r3, #0
 80023fa:	617b      	str	r3, [r7, #20]
 80023fc:	2305      	movs	r3, #5
 80023fe:	613b      	str	r3, [r7, #16]
 8002400:	f7ff ff00 	bl	8002204 <vTaskSuspendAll>
 8002404:	4b30      	ldr	r3, [pc, #192]	; (80024c8 <uxTaskGetSystemState+0xdc>)
 8002406:	681b      	ldr	r3, [r3, #0]
 8002408:	68ba      	ldr	r2, [r7, #8]
 800240a:	429a      	cmp	r2, r3
 800240c:	d354      	bcc.n	80024b8 <uxTaskGetSystemState+0xcc>
 800240e:	693b      	ldr	r3, [r7, #16]
 8002410:	3b01      	subs	r3, #1
 8002412:	613b      	str	r3, [r7, #16]
 8002414:	697b      	ldr	r3, [r7, #20]
 8002416:	015b      	lsls	r3, r3, #5
 8002418:	68fa      	ldr	r2, [r7, #12]
 800241a:	18d0      	adds	r0, r2, r3
 800241c:	693a      	ldr	r2, [r7, #16]
 800241e:	4613      	mov	r3, r2
 8002420:	009b      	lsls	r3, r3, #2
 8002422:	4413      	add	r3, r2
 8002424:	009b      	lsls	r3, r3, #2
 8002426:	4a29      	ldr	r2, [pc, #164]	; (80024cc <uxTaskGetSystemState+0xe0>)
 8002428:	4413      	add	r3, r2
 800242a:	2201      	movs	r2, #1
 800242c:	4619      	mov	r1, r3
 800242e:	f000 fd3b 	bl	8002ea8 <prvListTaskWithinSingleList>
 8002432:	4602      	mov	r2, r0
 8002434:	697b      	ldr	r3, [r7, #20]
 8002436:	4413      	add	r3, r2
 8002438:	617b      	str	r3, [r7, #20]
 800243a:	693b      	ldr	r3, [r7, #16]
 800243c:	2b00      	cmp	r3, #0
 800243e:	d1e6      	bne.n	800240e <uxTaskGetSystemState+0x22>
 8002440:	697b      	ldr	r3, [r7, #20]
 8002442:	015b      	lsls	r3, r3, #5
 8002444:	68fa      	ldr	r2, [r7, #12]
 8002446:	18d0      	adds	r0, r2, r3
 8002448:	4b21      	ldr	r3, [pc, #132]	; (80024d0 <uxTaskGetSystemState+0xe4>)
 800244a:	681b      	ldr	r3, [r3, #0]
 800244c:	2202      	movs	r2, #2
 800244e:	4619      	mov	r1, r3
 8002450:	f000 fd2a 	bl	8002ea8 <prvListTaskWithinSingleList>
 8002454:	4602      	mov	r2, r0
 8002456:	697b      	ldr	r3, [r7, #20]
 8002458:	4413      	add	r3, r2
 800245a:	617b      	str	r3, [r7, #20]
 800245c:	697b      	ldr	r3, [r7, #20]
 800245e:	015b      	lsls	r3, r3, #5
 8002460:	68fa      	ldr	r2, [r7, #12]
 8002462:	18d0      	adds	r0, r2, r3
 8002464:	4b1b      	ldr	r3, [pc, #108]	; (80024d4 <uxTaskGetSystemState+0xe8>)
 8002466:	681b      	ldr	r3, [r3, #0]
 8002468:	2202      	movs	r2, #2
 800246a:	4619      	mov	r1, r3
 800246c:	f000 fd1c 	bl	8002ea8 <prvListTaskWithinSingleList>
 8002470:	4602      	mov	r2, r0
 8002472:	697b      	ldr	r3, [r7, #20]
 8002474:	4413      	add	r3, r2
 8002476:	617b      	str	r3, [r7, #20]
 8002478:	697b      	ldr	r3, [r7, #20]
 800247a:	015b      	lsls	r3, r3, #5
 800247c:	68fa      	ldr	r2, [r7, #12]
 800247e:	4413      	add	r3, r2
 8002480:	2204      	movs	r2, #4
 8002482:	4915      	ldr	r1, [pc, #84]	; (80024d8 <uxTaskGetSystemState+0xec>)
 8002484:	4618      	mov	r0, r3
 8002486:	f000 fd0f 	bl	8002ea8 <prvListTaskWithinSingleList>
 800248a:	4602      	mov	r2, r0
 800248c:	697b      	ldr	r3, [r7, #20]
 800248e:	4413      	add	r3, r2
 8002490:	617b      	str	r3, [r7, #20]
 8002492:	697b      	ldr	r3, [r7, #20]
 8002494:	015b      	lsls	r3, r3, #5
 8002496:	68fa      	ldr	r2, [r7, #12]
 8002498:	4413      	add	r3, r2
 800249a:	2203      	movs	r2, #3
 800249c:	490f      	ldr	r1, [pc, #60]	; (80024dc <uxTaskGetSystemState+0xf0>)
 800249e:	4618      	mov	r0, r3
 80024a0:	f000 fd02 	bl	8002ea8 <prvListTaskWithinSingleList>
 80024a4:	4602      	mov	r2, r0
 80024a6:	697b      	ldr	r3, [r7, #20]
 80024a8:	4413      	add	r3, r2
 80024aa:	617b      	str	r3, [r7, #20]
 80024ac:	687b      	ldr	r3, [r7, #4]
 80024ae:	2b00      	cmp	r3, #0
 80024b0:	d002      	beq.n	80024b8 <uxTaskGetSystemState+0xcc>
 80024b2:	687b      	ldr	r3, [r7, #4]
 80024b4:	2200      	movs	r2, #0
 80024b6:	601a      	str	r2, [r3, #0]
 80024b8:	f7ff feb2 	bl	8002220 <xTaskResumeAll>
 80024bc:	697b      	ldr	r3, [r7, #20]
 80024be:	4618      	mov	r0, r3
 80024c0:	3718      	adds	r7, #24
 80024c2:	46bd      	mov	sp, r7
 80024c4:	bd80      	pop	{r7, pc}
 80024c6:	bf00      	nop
 80024c8:	20000ab0 			; <UNDEFINED> instruction: 0x20000ab0
 80024cc:	200009dc 	ldrdcs	r0, [r0], -ip
 80024d0:	20000a68 	andcs	r0, r0, r8, ror #20
 80024d4:	20000a6c 	andcs	r0, r0, ip, ror #20
 80024d8:	20000a84 	andcs	r0, r0, r4, lsl #21
 80024dc:	20000a9c 	mulcs	r0, ip, sl

080024e0 <xTaskIncrementTick>:
 80024e0:	b580      	push	{r7, lr}
 80024e2:	b086      	sub	sp, #24
 80024e4:	af00      	add	r7, sp, #0
 80024e6:	2300      	movs	r3, #0
 80024e8:	617b      	str	r3, [r7, #20]
 80024ea:	4b55      	ldr	r3, [pc, #340]	; (8002640 <xTaskIncrementTick+0x160>)
 80024ec:	681b      	ldr	r3, [r3, #0]
 80024ee:	2b00      	cmp	r3, #0
 80024f0:	f040 8093 	bne.w	800261a <xTaskIncrementTick+0x13a>
 80024f4:	4b53      	ldr	r3, [pc, #332]	; (8002644 <xTaskIncrementTick+0x164>)
 80024f6:	681b      	ldr	r3, [r3, #0]
 80024f8:	3301      	adds	r3, #1
 80024fa:	4a52      	ldr	r2, [pc, #328]	; (8002644 <xTaskIncrementTick+0x164>)
 80024fc:	6013      	str	r3, [r2, #0]
 80024fe:	4b51      	ldr	r3, [pc, #324]	; (8002644 <xTaskIncrementTick+0x164>)
 8002500:	681b      	ldr	r3, [r3, #0]
 8002502:	613b      	str	r3, [r7, #16]
 8002504:	693b      	ldr	r3, [r7, #16]
 8002506:	2b00      	cmp	r3, #0
 8002508:	d11f      	bne.n	800254a <xTaskIncrementTick+0x6a>
 800250a:	4b4f      	ldr	r3, [pc, #316]	; (8002648 <xTaskIncrementTick+0x168>)
 800250c:	681b      	ldr	r3, [r3, #0]
 800250e:	681b      	ldr	r3, [r3, #0]
 8002510:	2b00      	cmp	r3, #0
 8002512:	d009      	beq.n	8002528 <xTaskIncrementTick+0x48>
 8002514:	f04f 0310 	mov.w	r3, #16
 8002518:	f383 8811 	msr	BASEPRI, r3
 800251c:	f3bf 8f6f 	isb	sy
 8002520:	f3bf 8f4f 	dsb	sy
 8002524:	603b      	str	r3, [r7, #0]
 8002526:	e7fe      	b.n	8002526 <xTaskIncrementTick+0x46>
 8002528:	4b47      	ldr	r3, [pc, #284]	; (8002648 <xTaskIncrementTick+0x168>)
 800252a:	681b      	ldr	r3, [r3, #0]
 800252c:	60fb      	str	r3, [r7, #12]
 800252e:	4b47      	ldr	r3, [pc, #284]	; (800264c <xTaskIncrementTick+0x16c>)
 8002530:	681b      	ldr	r3, [r3, #0]
 8002532:	4a45      	ldr	r2, [pc, #276]	; (8002648 <xTaskIncrementTick+0x168>)
 8002534:	6013      	str	r3, [r2, #0]
 8002536:	4a45      	ldr	r2, [pc, #276]	; (800264c <xTaskIncrementTick+0x16c>)
 8002538:	68fb      	ldr	r3, [r7, #12]
 800253a:	6013      	str	r3, [r2, #0]
 800253c:	4b44      	ldr	r3, [pc, #272]	; (8002650 <xTaskIncrementTick+0x170>)
 800253e:	681b      	ldr	r3, [r3, #0]
 8002540:	3301      	adds	r3, #1
 8002542:	4a43      	ldr	r2, [pc, #268]	; (8002650 <xTaskIncrementTick+0x170>)
 8002544:	6013      	str	r3, [r2, #0]
 8002546:	f000 fd66 	bl	8003016 <prvResetNextTaskUnblockTime>
 800254a:	4b42      	ldr	r3, [pc, #264]	; (8002654 <xTaskIncrementTick+0x174>)
 800254c:	681b      	ldr	r3, [r3, #0]
 800254e:	693a      	ldr	r2, [r7, #16]
 8002550:	429a      	cmp	r2, r3
 8002552:	d34d      	bcc.n	80025f0 <xTaskIncrementTick+0x110>
 8002554:	4b3c      	ldr	r3, [pc, #240]	; (8002648 <xTaskIncrementTick+0x168>)
 8002556:	681b      	ldr	r3, [r3, #0]
 8002558:	681b      	ldr	r3, [r3, #0]
 800255a:	2b00      	cmp	r3, #0
 800255c:	d101      	bne.n	8002562 <xTaskIncrementTick+0x82>
 800255e:	2301      	movs	r3, #1
 8002560:	e000      	b.n	8002564 <xTaskIncrementTick+0x84>
 8002562:	2300      	movs	r3, #0
 8002564:	2b00      	cmp	r3, #0
 8002566:	d004      	beq.n	8002572 <xTaskIncrementTick+0x92>
 8002568:	4b3a      	ldr	r3, [pc, #232]	; (8002654 <xTaskIncrementTick+0x174>)
 800256a:	f04f 32ff 	mov.w	r2, #4294967295	; 0xffffffff
 800256e:	601a      	str	r2, [r3, #0]
 8002570:	e03e      	b.n	80025f0 <xTaskIncrementTick+0x110>
 8002572:	4b35      	ldr	r3, [pc, #212]	; (8002648 <xTaskIncrementTick+0x168>)
 8002574:	681b      	ldr	r3, [r3, #0]
 8002576:	68db      	ldr	r3, [r3, #12]
 8002578:	68db      	ldr	r3, [r3, #12]
 800257a:	60bb      	str	r3, [r7, #8]
 800257c:	68bb      	ldr	r3, [r7, #8]
 800257e:	685b      	ldr	r3, [r3, #4]
 8002580:	607b      	str	r3, [r7, #4]
 8002582:	693a      	ldr	r2, [r7, #16]
 8002584:	687b      	ldr	r3, [r7, #4]
 8002586:	429a      	cmp	r2, r3
 8002588:	d203      	bcs.n	8002592 <xTaskIncrementTick+0xb2>
 800258a:	4a32      	ldr	r2, [pc, #200]	; (8002654 <xTaskIncrementTick+0x174>)
 800258c:	687b      	ldr	r3, [r7, #4]
 800258e:	6013      	str	r3, [r2, #0]
 8002590:	e02e      	b.n	80025f0 <xTaskIncrementTick+0x110>
 8002592:	68bb      	ldr	r3, [r7, #8]
 8002594:	3304      	adds	r3, #4
 8002596:	4618      	mov	r0, r3
 8002598:	f7fe f900 	bl	800079c <uxListRemove>
 800259c:	68bb      	ldr	r3, [r7, #8]
 800259e:	6a9b      	ldr	r3, [r3, #40]	; 0x28
 80025a0:	2b00      	cmp	r3, #0
 80025a2:	d004      	beq.n	80025ae <xTaskIncrementTick+0xce>
 80025a4:	68bb      	ldr	r3, [r7, #8]
 80025a6:	3318      	adds	r3, #24
 80025a8:	4618      	mov	r0, r3
 80025aa:	f7fe f8f7 	bl	800079c <uxListRemove>
 80025ae:	68bb      	ldr	r3, [r7, #8]
 80025b0:	6adb      	ldr	r3, [r3, #44]	; 0x2c
 80025b2:	2201      	movs	r2, #1
 80025b4:	409a      	lsls	r2, r3
 80025b6:	4b28      	ldr	r3, [pc, #160]	; (8002658 <xTaskIncrementTick+0x178>)
 80025b8:	681b      	ldr	r3, [r3, #0]
 80025ba:	4313      	orrs	r3, r2
 80025bc:	4a26      	ldr	r2, [pc, #152]	; (8002658 <xTaskIncrementTick+0x178>)
 80025be:	6013      	str	r3, [r2, #0]
 80025c0:	68bb      	ldr	r3, [r7, #8]
 80025c2:	6ada      	ldr	r2, [r3, #44]	; 0x2c
 80025c4:	4613      	mov	r3, r2
 80025c6:	009b      	lsls	r3, r3, #2
 80025c8:	4413      	add	r3, r2
 80025ca:	009b      	lsls	r3, r3, #2
 80025cc:	4a23      	ldr	r2, [pc, #140]	; (800265c <xTaskIncrementTick+0x17c>)
 80025ce:	441a      	add	r2, r3
 80025d0:	68bb      	ldr	r3, [r7, #8]
 80025d2:	3304      	adds	r3, #4
 80025d4:	4619      	mov	r1, r3
 80025d6:	4610      	mov	r0, r2
 80025d8:	f7fe f883 	bl	80006e2 <vListInsertEnd>
 80025dc:	68bb      	ldr	r3, [r7, #8]
 80025de:	6ada      	ldr	r2, [r3, #44]	; 0x2c
 80025e0:	4b1f      	ldr	r3, [pc, #124]	; (8002660 <xTaskIncrementTick+0x180>)
 80025e2:	681b      	ldr	r3, [r3, #0]
 80025e4:	6adb      	ldr	r3, [r3, #44]	; 0x2c
 80025e6:	429a      	cmp	r2, r3
 80025e8:	d3b4      	bcc.n	8002554 <xTaskIncrementTick+0x74>
 80025ea:	2301      	movs	r3, #1
 80025ec:	617b      	str	r3, [r7, #20]
 80025ee:	e7b1      	b.n	8002554 <xTaskIncrementTick+0x74>
 80025f0:	4b1b      	ldr	r3, [pc, #108]	; (8002660 <xTaskIncrementTick+0x180>)
 80025f2:	681b      	ldr	r3, [r3, #0]
 80025f4:	6ada      	ldr	r2, [r3, #44]	; 0x2c
 80025f6:	4919      	ldr	r1, [pc, #100]	; (800265c <xTaskIncrementTick+0x17c>)
 80025f8:	4613      	mov	r3, r2
 80025fa:	009b      	lsls	r3, r3, #2
 80025fc:	4413      	add	r3, r2
 80025fe:	009b      	lsls	r3, r3, #2
 8002600:	440b      	add	r3, r1
 8002602:	681b      	ldr	r3, [r3, #0]
 8002604:	2b01      	cmp	r3, #1
 8002606:	d901      	bls.n	800260c <xTaskIncrementTick+0x12c>
 8002608:	2301      	movs	r3, #1
 800260a:	617b      	str	r3, [r7, #20]
 800260c:	4b15      	ldr	r3, [pc, #84]	; (8002664 <xTaskIncrementTick+0x184>)
 800260e:	681b      	ldr	r3, [r3, #0]
 8002610:	2b00      	cmp	r3, #0
 8002612:	d109      	bne.n	8002628 <xTaskIncrementTick+0x148>
 8002614:	f7fd ff10 	bl	8000438 <vApplicationTickHook>
 8002618:	e006      	b.n	8002628 <xTaskIncrementTick+0x148>
 800261a:	4b12      	ldr	r3, [pc, #72]	; (8002664 <xTaskIncrementTick+0x184>)
 800261c:	681b      	ldr	r3, [r3, #0]
 800261e:	3301      	adds	r3, #1
 8002620:	4a10      	ldr	r2, [pc, #64]	; (8002664 <xTaskIncrementTick+0x184>)
 8002622:	6013      	str	r3, [r2, #0]
 8002624:	f7fd ff08 	bl	8000438 <vApplicationTickHook>
 8002628:	4b0f      	ldr	r3, [pc, #60]	; (8002668 <xTaskIncrementTick+0x188>)
 800262a:	681b      	ldr	r3, [r3, #0]
 800262c:	2b00      	cmp	r3, #0
 800262e:	d001      	beq.n	8002634 <xTaskIncrementTick+0x154>
 8002630:	2301      	movs	r3, #1
 8002632:	617b      	str	r3, [r7, #20]
 8002634:	697b      	ldr	r3, [r7, #20]
 8002636:	4618      	mov	r0, r3
 8002638:	3718      	adds	r7, #24
 800263a:	46bd      	mov	sp, r7
 800263c:	bd80      	pop	{r7, pc}
 800263e:	bf00      	nop
 8002640:	20000ad4 	ldrdcs	r0, [r0], -r4
 8002644:	20000ab4 			; <UNDEFINED> instruction: 0x20000ab4
 8002648:	20000a68 	andcs	r0, r0, r8, ror #20
 800264c:	20000a6c 	andcs	r0, r0, ip, ror #20
 8002650:	20000ac8 	andcs	r0, r0, r8, asr #21
 8002654:	20000ad0 	ldrdcs	r0, [r0], -r0	; <UNPREDICTABLE>
 8002658:	20000ab8 			; <UNDEFINED> instruction: 0x20000ab8
 800265c:	200009dc 	ldrdcs	r0, [r0], -ip
 8002660:	200009d8 	ldrdcs	r0, [r0], -r8
 8002664:	20000ac0 	andcs	r0, r0, r0, asr #21
 8002668:	20000ac4 	andcs	r0, r0, r4, asr #21

0800266c <vTaskSwitchContext>:
 800266c:	b480      	push	{r7}
 800266e:	b087      	sub	sp, #28
 8002670:	af00      	add	r7, sp, #0
 8002672:	4b26      	ldr	r3, [pc, #152]	; (800270c <vTaskSwitchContext+0xa0>)
 8002674:	681b      	ldr	r3, [r3, #0]
 8002676:	2b00      	cmp	r3, #0
 8002678:	d003      	beq.n	8002682 <vTaskSwitchContext+0x16>
 800267a:	4b25      	ldr	r3, [pc, #148]	; (8002710 <vTaskSwitchContext+0xa4>)
 800267c:	2201      	movs	r2, #1
 800267e:	601a      	str	r2, [r3, #0]
 8002680:	e03e      	b.n	8002700 <vTaskSwitchContext+0x94>
 8002682:	4b23      	ldr	r3, [pc, #140]	; (8002710 <vTaskSwitchContext+0xa4>)
 8002684:	2200      	movs	r2, #0
 8002686:	601a      	str	r2, [r3, #0]
 8002688:	4b22      	ldr	r3, [pc, #136]	; (8002714 <vTaskSwitchContext+0xa8>)
 800268a:	681b      	ldr	r3, [r3, #0]
 800268c:	60fb      	str	r3, [r7, #12]
 800268e:	68fb      	ldr	r3, [r7, #12]
 8002690:	fab3 f383 	clz	r3, r3
 8002694:	72fb      	strb	r3, [r7, #11]
 8002696:	7afb      	ldrb	r3, [r7, #11]
 8002698:	f1c3 031f 	rsb	r3, r3, #31
 800269c:	617b      	str	r3, [r7, #20]
 800269e:	491e      	ldr	r1, [pc, #120]	; (8002718 <vTaskSwitchContext+0xac>)
 80026a0:	697a      	ldr	r2, [r7, #20]
 80026a2:	4613      	mov	r3, r2
 80026a4:	009b      	lsls	r3, r3, #2
 80026a6:	4413      	add	r3, r2
 80026a8:	009b      	lsls	r3, r3, #2
 80026aa:	440b      	add	r3, r1
 80026ac:	681b      	ldr	r3, [r3, #0]
 80026ae:	2b00      	cmp	r3, #0
 80026b0:	d109      	bne.n	80026c6 <vTaskSwitchContext+0x5a>
 80026b2:	f04f 0310 	mov.w	r3, #16
 80026b6:	f383 8811 	msr	BASEPRI, r3
 80026ba:	f3bf 8f6f 	isb	sy
 80026be:	f3bf 8f4f 	dsb	sy
 80026c2:	607b      	str	r3, [r7, #4]
 80026c4:	e7fe      	b.n	80026c4 <vTaskSwitchContext+0x58>
 80026c6:	697a      	ldr	r2, [r7, #20]
 80026c8:	4613      	mov	r3, r2
 80026ca:	009b      	lsls	r3, r3, #2
 80026cc:	4413      	add	r3, r2
 80026ce:	009b      	lsls	r3, r3, #2
 80026d0:	4a11      	ldr	r2, [pc, #68]	; (8002718 <vTaskSwitchContext+0xac>)
 80026d2:	4413      	add	r3, r2
 80026d4:	613b      	str	r3, [r7, #16]
 80026d6:	693b      	ldr	r3, [r7, #16]
 80026d8:	685b      	ldr	r3, [r3, #4]
 80026da:	685a      	ldr	r2, [r3, #4]
 80026dc:	693b      	ldr	r3, [r7, #16]
 80026de:	605a      	str	r2, [r3, #4]
 80026e0:	693b      	ldr	r3, [r7, #16]
 80026e2:	685a      	ldr	r2, [r3, #4]
 80026e4:	693b      	ldr	r3, [r7, #16]
 80026e6:	3308      	adds	r3, #8
 80026e8:	429a      	cmp	r2, r3
 80026ea:	d104      	bne.n	80026f6 <vTaskSwitchContext+0x8a>
 80026ec:	693b      	ldr	r3, [r7, #16]
 80026ee:	685b      	ldr	r3, [r3, #4]
 80026f0:	685a      	ldr	r2, [r3, #4]
 80026f2:	693b      	ldr	r3, [r7, #16]
 80026f4:	605a      	str	r2, [r3, #4]
 80026f6:	693b      	ldr	r3, [r7, #16]
 80026f8:	685b      	ldr	r3, [r3, #4]
 80026fa:	68db      	ldr	r3, [r3, #12]
 80026fc:	4a07      	ldr	r2, [pc, #28]	; (800271c <vTaskSwitchContext+0xb0>)
 80026fe:	6013      	str	r3, [r2, #0]
 8002700:	bf00      	nop
 8002702:	371c      	adds	r7, #28
 8002704:	46bd      	mov	sp, r7
 8002706:	f85d 7b04 	ldr.w	r7, [sp], #4
 800270a:	4770      	bx	lr
 800270c:	20000ad4 	ldrdcs	r0, [r0], -r4
 8002710:	20000ac4 	andcs	r0, r0, r4, asr #21
 8002714:	20000ab8 			; <UNDEFINED> instruction: 0x20000ab8
 8002718:	200009dc 	ldrdcs	r0, [r0], -ip
 800271c:	200009d8 	ldrdcs	r0, [r0], -r8

08002720 <vTaskPlaceOnEventList>:
 8002720:	b580      	push	{r7, lr}
 8002722:	b084      	sub	sp, #16
 8002724:	af00      	add	r7, sp, #0
 8002726:	6078      	str	r0, [r7, #4]
 8002728:	6039      	str	r1, [r7, #0]
 800272a:	687b      	ldr	r3, [r7, #4]
 800272c:	2b00      	cmp	r3, #0
 800272e:	d109      	bne.n	8002744 <vTaskPlaceOnEventList+0x24>
 8002730:	f04f 0310 	mov.w	r3, #16
 8002734:	f383 8811 	msr	BASEPRI, r3
 8002738:	f3bf 8f6f 	isb	sy
 800273c:	f3bf 8f4f 	dsb	sy
 8002740:	60bb      	str	r3, [r7, #8]
 8002742:	e7fe      	b.n	8002742 <vTaskPlaceOnEventList+0x22>
 8002744:	4b19      	ldr	r3, [pc, #100]	; (80027ac <vTaskPlaceOnEventList+0x8c>)
 8002746:	681b      	ldr	r3, [r3, #0]
 8002748:	3318      	adds	r3, #24
 800274a:	4619      	mov	r1, r3
 800274c:	6878      	ldr	r0, [r7, #4]
 800274e:	f7fd ffec 	bl	800072a <vListInsert>
 8002752:	4b16      	ldr	r3, [pc, #88]	; (80027ac <vTaskPlaceOnEventList+0x8c>)
 8002754:	681b      	ldr	r3, [r3, #0]
 8002756:	3304      	adds	r3, #4
 8002758:	4618      	mov	r0, r3
 800275a:	f7fe f81f 	bl	800079c <uxListRemove>
 800275e:	4603      	mov	r3, r0
 8002760:	2b00      	cmp	r3, #0
 8002762:	d10b      	bne.n	800277c <vTaskPlaceOnEventList+0x5c>
 8002764:	4b11      	ldr	r3, [pc, #68]	; (80027ac <vTaskPlaceOnEventList+0x8c>)
 8002766:	681b      	ldr	r3, [r3, #0]
 8002768:	6adb      	ldr	r3, [r3, #44]	; 0x2c
 800276a:	2201      	movs	r2, #1
 800276c:	fa02 f303 	lsl.w	r3, r2, r3
 8002770:	43da      	mvns	r2, r3
 8002772:	4b0f      	ldr	r3, [pc, #60]	; (80027b0 <vTaskPlaceOnEventList+0x90>)
 8002774:	681b      	ldr	r3, [r3, #0]
 8002776:	4013      	ands	r3, r2
 8002778:	4a0d      	ldr	r2, [pc, #52]	; (80027b0 <vTaskPlaceOnEventList+0x90>)
 800277a:	6013      	str	r3, [r2, #0]
 800277c:	683b      	ldr	r3, [r7, #0]
 800277e:	f1b3 3fff 	cmp.w	r3, #4294967295	; 0xffffffff
 8002782:	d107      	bne.n	8002794 <vTaskPlaceOnEventList+0x74>
 8002784:	4b09      	ldr	r3, [pc, #36]	; (80027ac <vTaskPlaceOnEventList+0x8c>)
 8002786:	681b      	ldr	r3, [r3, #0]
 8002788:	3304      	adds	r3, #4
 800278a:	4619      	mov	r1, r3
 800278c:	4809      	ldr	r0, [pc, #36]	; (80027b4 <vTaskPlaceOnEventList+0x94>)
 800278e:	f7fd ffa8 	bl	80006e2 <vListInsertEnd>
 8002792:	e007      	b.n	80027a4 <vTaskPlaceOnEventList+0x84>
 8002794:	4b08      	ldr	r3, [pc, #32]	; (80027b8 <vTaskPlaceOnEventList+0x98>)
 8002796:	681b      	ldr	r3, [r3, #0]
 8002798:	683a      	ldr	r2, [r7, #0]
 800279a:	4413      	add	r3, r2
 800279c:	60fb      	str	r3, [r7, #12]
 800279e:	68f8      	ldr	r0, [r7, #12]
 80027a0:	f000 fb16 	bl	8002dd0 <prvAddCurrentTaskToDelayedList>
 80027a4:	bf00      	nop
 80027a6:	3710      	adds	r7, #16
 80027a8:	46bd      	mov	sp, r7
 80027aa:	bd80      	pop	{r7, pc}
 80027ac:	200009d8 	ldrdcs	r0, [r0], -r8
 80027b0:	20000ab8 			; <UNDEFINED> instruction: 0x20000ab8
 80027b4:	20000a9c 	mulcs	r0, ip, sl
 80027b8:	20000ab4 			; <UNDEFINED> instruction: 0x20000ab4

080027bc <vTaskPlaceOnUnorderedEventList>:
 80027bc:	b580      	push	{r7, lr}
 80027be:	b088      	sub	sp, #32
 80027c0:	af00      	add	r7, sp, #0
 80027c2:	60f8      	str	r0, [r7, #12]
 80027c4:	60b9      	str	r1, [r7, #8]
 80027c6:	607a      	str	r2, [r7, #4]
 80027c8:	68fb      	ldr	r3, [r7, #12]
 80027ca:	2b00      	cmp	r3, #0
 80027cc:	d109      	bne.n	80027e2 <vTaskPlaceOnUnorderedEventList+0x26>
 80027ce:	f04f 0310 	mov.w	r3, #16
 80027d2:	f383 8811 	msr	BASEPRI, r3
 80027d6:	f3bf 8f6f 	isb	sy
 80027da:	f3bf 8f4f 	dsb	sy
 80027de:	61bb      	str	r3, [r7, #24]
 80027e0:	e7fe      	b.n	80027e0 <vTaskPlaceOnUnorderedEventList+0x24>
 80027e2:	4b24      	ldr	r3, [pc, #144]	; (8002874 <vTaskPlaceOnUnorderedEventList+0xb8>)
 80027e4:	681b      	ldr	r3, [r3, #0]
 80027e6:	2b00      	cmp	r3, #0
 80027e8:	d109      	bne.n	80027fe <vTaskPlaceOnUnorderedEventList+0x42>
 80027ea:	f04f 0310 	mov.w	r3, #16
 80027ee:	f383 8811 	msr	BASEPRI, r3
 80027f2:	f3bf 8f6f 	isb	sy
 80027f6:	f3bf 8f4f 	dsb	sy
 80027fa:	617b      	str	r3, [r7, #20]
 80027fc:	e7fe      	b.n	80027fc <vTaskPlaceOnUnorderedEventList+0x40>
 80027fe:	4b1e      	ldr	r3, [pc, #120]	; (8002878 <vTaskPlaceOnUnorderedEventList+0xbc>)
 8002800:	681b      	ldr	r3, [r3, #0]
 8002802:	68ba      	ldr	r2, [r7, #8]
 8002804:	f042 4200 	orr.w	r2, r2, #2147483648	; 0x80000000
 8002808:	619a      	str	r2, [r3, #24]
 800280a:	4b1b      	ldr	r3, [pc, #108]	; (8002878 <vTaskPlaceOnUnorderedEventList+0xbc>)
 800280c:	681b      	ldr	r3, [r3, #0]
 800280e:	3318      	adds	r3, #24
 8002810:	4619      	mov	r1, r3
 8002812:	68f8      	ldr	r0, [r7, #12]
 8002814:	f7fd ff65 	bl	80006e2 <vListInsertEnd>
 8002818:	4b17      	ldr	r3, [pc, #92]	; (8002878 <vTaskPlaceOnUnorderedEventList+0xbc>)
 800281a:	681b      	ldr	r3, [r3, #0]
 800281c:	3304      	adds	r3, #4
 800281e:	4618      	mov	r0, r3
 8002820:	f7fd ffbc 	bl	800079c <uxListRemove>
 8002824:	4603      	mov	r3, r0
 8002826:	2b00      	cmp	r3, #0
 8002828:	d10b      	bne.n	8002842 <vTaskPlaceOnUnorderedEventList+0x86>
 800282a:	4b13      	ldr	r3, [pc, #76]	; (8002878 <vTaskPlaceOnUnorderedEventList+0xbc>)
 800282c:	681b      	ldr	r3, [r3, #0]
 800282e:	6adb      	ldr	r3, [r3, #44]	; 0x2c
 8002830:	2201      	movs	r2, #1
 8002832:	fa02 f303 	lsl.w	r3, r2, r3
 8002836:	43da      	mvns	r2, r3
 8002838:	4b10      	ldr	r3, [pc, #64]	; (800287c <vTaskPlaceOnUnorderedEventList+0xc0>)
 800283a:	681b      	ldr	r3, [r3, #0]
 800283c:	4013      	ands	r3, r2
 800283e:	4a0f      	ldr	r2, [pc, #60]	; (800287c <vTaskPlaceOnUnorderedEventList+0xc0>)
 8002840:	6013      	str	r3, [r2, #0]
 8002842:	687b      	ldr	r3, [r7, #4]
 8002844:	f1b3 3fff 	cmp.w	r3, #4294967295	; 0xffffffff
 8002848:	d107      	bne.n	800285a <vTaskPlaceOnUnorderedEventList+0x9e>
 800284a:	4b0b      	ldr	r3, [pc, #44]	; (8002878 <vTaskPlaceOnUnorderedEventList+0xbc>)
 800284c:	681b      	ldr	r3, [r3, #0]
 800284e:	3304      	adds	r3, #4
 8002850:	4619      	mov	r1, r3
 8002852:	480b      	ldr	r0, [pc, #44]	; (8002880 <vTaskPlaceOnUnorderedEventList+0xc4>)
 8002854:	f7fd ff45 	bl	80006e2 <vListInsertEnd>
 8002858:	e007      	b.n	800286a <vTaskPlaceOnUnorderedEventList+0xae>
 800285a:	4b0a      	ldr	r3, [pc, #40]	; (8002884 <vTaskPlaceOnUnorderedEventList+0xc8>)
 800285c:	681b      	ldr	r3, [r3, #0]
 800285e:	687a      	ldr	r2, [r7, #4]
 8002860:	4413      	add	r3, r2
 8002862:	61fb      	str	r3, [r7, #28]
 8002864:	69f8      	ldr	r0, [r7, #28]
 8002866:	f000 fab3 	bl	8002dd0 <prvAddCurrentTaskToDelayedList>
 800286a:	bf00      	nop
 800286c:	3720      	adds	r7, #32
 800286e:	46bd      	mov	sp, r7
 8002870:	bd80      	pop	{r7, pc}
 8002872:	bf00      	nop
 8002874:	20000ad4 	ldrdcs	r0, [r0], -r4
 8002878:	200009d8 	ldrdcs	r0, [r0], -r8
 800287c:	20000ab8 			; <UNDEFINED> instruction: 0x20000ab8
 8002880:	20000a9c 	mulcs	r0, ip, sl
 8002884:	20000ab4 			; <UNDEFINED> instruction: 0x20000ab4

08002888 <vTaskPlaceOnEventListRestricted>:
 8002888:	b580      	push	{r7, lr}
 800288a:	b086      	sub	sp, #24
 800288c:	af00      	add	r7, sp, #0
 800288e:	60f8      	str	r0, [r7, #12]
 8002890:	60b9      	str	r1, [r7, #8]
 8002892:	607a      	str	r2, [r7, #4]
 8002894:	68fb      	ldr	r3, [r7, #12]
 8002896:	2b00      	cmp	r3, #0
 8002898:	d109      	bne.n	80028ae <vTaskPlaceOnEventListRestricted+0x26>
 800289a:	f04f 0310 	mov.w	r3, #16
 800289e:	f383 8811 	msr	BASEPRI, r3
 80028a2:	f3bf 8f6f 	isb	sy
 80028a6:	f3bf 8f4f 	dsb	sy
 80028aa:	613b      	str	r3, [r7, #16]
 80028ac:	e7fe      	b.n	80028ac <vTaskPlaceOnEventListRestricted+0x24>
 80028ae:	4b19      	ldr	r3, [pc, #100]	; (8002914 <vTaskPlaceOnEventListRestricted+0x8c>)
 80028b0:	681b      	ldr	r3, [r3, #0]
 80028b2:	3318      	adds	r3, #24
 80028b4:	4619      	mov	r1, r3
 80028b6:	68f8      	ldr	r0, [r7, #12]
 80028b8:	f7fd ff13 	bl	80006e2 <vListInsertEnd>
 80028bc:	4b15      	ldr	r3, [pc, #84]	; (8002914 <vTaskPlaceOnEventListRestricted+0x8c>)
 80028be:	681b      	ldr	r3, [r3, #0]
 80028c0:	3304      	adds	r3, #4
 80028c2:	4618      	mov	r0, r3
 80028c4:	f7fd ff6a 	bl	800079c <uxListRemove>
 80028c8:	4603      	mov	r3, r0
 80028ca:	2b00      	cmp	r3, #0
 80028cc:	d10b      	bne.n	80028e6 <vTaskPlaceOnEventListRestricted+0x5e>
 80028ce:	4b11      	ldr	r3, [pc, #68]	; (8002914 <vTaskPlaceOnEventListRestricted+0x8c>)
 80028d0:	681b      	ldr	r3, [r3, #0]
 80028d2:	6adb      	ldr	r3, [r3, #44]	; 0x2c
 80028d4:	2201      	movs	r2, #1
 80028d6:	fa02 f303 	lsl.w	r3, r2, r3
 80028da:	43da      	mvns	r2, r3
 80028dc:	4b0e      	ldr	r3, [pc, #56]	; (8002918 <vTaskPlaceOnEventListRestricted+0x90>)
 80028de:	681b      	ldr	r3, [r3, #0]
 80028e0:	4013      	ands	r3, r2
 80028e2:	4a0d      	ldr	r2, [pc, #52]	; (8002918 <vTaskPlaceOnEventListRestricted+0x90>)
 80028e4:	6013      	str	r3, [r2, #0]
 80028e6:	687b      	ldr	r3, [r7, #4]
 80028e8:	2b01      	cmp	r3, #1
 80028ea:	d107      	bne.n	80028fc <vTaskPlaceOnEventListRestricted+0x74>
 80028ec:	4b09      	ldr	r3, [pc, #36]	; (8002914 <vTaskPlaceOnEventListRestricted+0x8c>)
 80028ee:	681b      	ldr	r3, [r3, #0]
 80028f0:	3304      	adds	r3, #4
 80028f2:	4619      	mov	r1, r3
 80028f4:	4809      	ldr	r0, [pc, #36]	; (800291c <vTaskPlaceOnEventListRestricted+0x94>)
 80028f6:	f7fd fef4 	bl	80006e2 <vListInsertEnd>
 80028fa:	e007      	b.n	800290c <vTaskPlaceOnEventListRestricted+0x84>
 80028fc:	4b08      	ldr	r3, [pc, #32]	; (8002920 <vTaskPlaceOnEventListRestricted+0x98>)
 80028fe:	681b      	ldr	r3, [r3, #0]
 8002900:	68ba      	ldr	r2, [r7, #8]
 8002902:	4413      	add	r3, r2
 8002904:	617b      	str	r3, [r7, #20]
 8002906:	6978      	ldr	r0, [r7, #20]
 8002908:	f000 fa62 	bl	8002dd0 <prvAddCurrentTaskToDelayedList>
 800290c:	bf00      	nop
 800290e:	3718      	adds	r7, #24
 8002910:	46bd      	mov	sp, r7
 8002912:	bd80      	pop	{r7, pc}
 8002914:	200009d8 	ldrdcs	r0, [r0], -r8
 8002918:	20000ab8 			; <UNDEFINED> instruction: 0x20000ab8
 800291c:	20000a9c 	mulcs	r0, ip, sl
 8002920:	20000ab4 			; <UNDEFINED> instruction: 0x20000ab4

08002924 <xTaskRemoveFromEventList>:
 8002924:	b580      	push	{r7, lr}
 8002926:	b086      	sub	sp, #24
 8002928:	af00      	add	r7, sp, #0
 800292a:	6078      	str	r0, [r7, #4]
 800292c:	687b      	ldr	r3, [r7, #4]
 800292e:	68db      	ldr	r3, [r3, #12]
 8002930:	68db      	ldr	r3, [r3, #12]
 8002932:	613b      	str	r3, [r7, #16]
 8002934:	693b      	ldr	r3, [r7, #16]
 8002936:	2b00      	cmp	r3, #0
 8002938:	d109      	bne.n	800294e <xTaskRemoveFromEventList+0x2a>
 800293a:	f04f 0310 	mov.w	r3, #16
 800293e:	f383 8811 	msr	BASEPRI, r3
 8002942:	f3bf 8f6f 	isb	sy
 8002946:	f3bf 8f4f 	dsb	sy
 800294a:	60fb      	str	r3, [r7, #12]
 800294c:	e7fe      	b.n	800294c <xTaskRemoveFromEventList+0x28>
 800294e:	693b      	ldr	r3, [r7, #16]
 8002950:	3318      	adds	r3, #24
 8002952:	4618      	mov	r0, r3
 8002954:	f7fd ff22 	bl	800079c <uxListRemove>
 8002958:	4b1d      	ldr	r3, [pc, #116]	; (80029d0 <xTaskRemoveFromEventList+0xac>)
 800295a:	681b      	ldr	r3, [r3, #0]
 800295c:	2b00      	cmp	r3, #0
 800295e:	d11c      	bne.n	800299a <xTaskRemoveFromEventList+0x76>
 8002960:	693b      	ldr	r3, [r7, #16]
 8002962:	3304      	adds	r3, #4
 8002964:	4618      	mov	r0, r3
 8002966:	f7fd ff19 	bl	800079c <uxListRemove>
 800296a:	693b      	ldr	r3, [r7, #16]
 800296c:	6adb      	ldr	r3, [r3, #44]	; 0x2c
 800296e:	2201      	movs	r2, #1
 8002970:	409a      	lsls	r2, r3
 8002972:	4b18      	ldr	r3, [pc, #96]	; (80029d4 <xTaskRemoveFromEventList+0xb0>)
 8002974:	681b      	ldr	r3, [r3, #0]
 8002976:	4313      	orrs	r3, r2
 8002978:	4a16      	ldr	r2, [pc, #88]	; (80029d4 <xTaskRemoveFromEventList+0xb0>)
 800297a:	6013      	str	r3, [r2, #0]
 800297c:	693b      	ldr	r3, [r7, #16]
 800297e:	6ada      	ldr	r2, [r3, #44]	; 0x2c
 8002980:	4613      	mov	r3, r2
 8002982:	009b      	lsls	r3, r3, #2
 8002984:	4413      	add	r3, r2
 8002986:	009b      	lsls	r3, r3, #2
 8002988:	4a13      	ldr	r2, [pc, #76]	; (80029d8 <xTaskRemoveFromEventList+0xb4>)
 800298a:	441a      	add	r2, r3
 800298c:	693b      	ldr	r3, [r7, #16]
 800298e:	3304      	adds	r3, #4
 8002990:	4619      	mov	r1, r3
 8002992:	4610      	mov	r0, r2
 8002994:	f7fd fea5 	bl	80006e2 <vListInsertEnd>
 8002998:	e005      	b.n	80029a6 <xTaskRemoveFromEventList+0x82>
 800299a:	693b      	ldr	r3, [r7, #16]
 800299c:	3318      	adds	r3, #24
 800299e:	4619      	mov	r1, r3
 80029a0:	480e      	ldr	r0, [pc, #56]	; (80029dc <xTaskRemoveFromEventList+0xb8>)
 80029a2:	f7fd fe9e 	bl	80006e2 <vListInsertEnd>
 80029a6:	693b      	ldr	r3, [r7, #16]
 80029a8:	6ada      	ldr	r2, [r3, #44]	; 0x2c
 80029aa:	4b0d      	ldr	r3, [pc, #52]	; (80029e0 <xTaskRemoveFromEventList+0xbc>)
 80029ac:	681b      	ldr	r3, [r3, #0]
 80029ae:	6adb      	ldr	r3, [r3, #44]	; 0x2c
 80029b0:	429a      	cmp	r2, r3
 80029b2:	d905      	bls.n	80029c0 <xTaskRemoveFromEventList+0x9c>
 80029b4:	2301      	movs	r3, #1
 80029b6:	617b      	str	r3, [r7, #20]
 80029b8:	4b0a      	ldr	r3, [pc, #40]	; (80029e4 <xTaskRemoveFromEventList+0xc0>)
 80029ba:	2201      	movs	r2, #1
 80029bc:	601a      	str	r2, [r3, #0]
 80029be:	e001      	b.n	80029c4 <xTaskRemoveFromEventList+0xa0>
 80029c0:	2300      	movs	r3, #0
 80029c2:	617b      	str	r3, [r7, #20]
 80029c4:	697b      	ldr	r3, [r7, #20]
 80029c6:	4618      	mov	r0, r3
 80029c8:	3718      	adds	r7, #24
 80029ca:	46bd      	mov	sp, r7
 80029cc:	bd80      	pop	{r7, pc}
 80029ce:	bf00      	nop
 80029d0:	20000ad4 	ldrdcs	r0, [r0], -r4
 80029d4:	20000ab8 			; <UNDEFINED> instruction: 0x20000ab8
 80029d8:	200009dc 	ldrdcs	r0, [r0], -ip
 80029dc:	20000a70 	andcs	r0, r0, r0, ror sl
 80029e0:	200009d8 	ldrdcs	r0, [r0], -r8
 80029e4:	20000ac4 	andcs	r0, r0, r4, asr #21

080029e8 <xTaskRemoveFromUnorderedEventList>:
 80029e8:	b580      	push	{r7, lr}
 80029ea:	b086      	sub	sp, #24
 80029ec:	af00      	add	r7, sp, #0
 80029ee:	6078      	str	r0, [r7, #4]
 80029f0:	6039      	str	r1, [r7, #0]
 80029f2:	4b2b      	ldr	r3, [pc, #172]	; (8002aa0 <xTaskRemoveFromUnorderedEventList+0xb8>)
 80029f4:	681b      	ldr	r3, [r3, #0]
 80029f6:	2b00      	cmp	r3, #0
 80029f8:	d109      	bne.n	8002a0e <xTaskRemoveFromUnorderedEventList+0x26>
 80029fa:	f04f 0310 	mov.w	r3, #16
 80029fe:	f383 8811 	msr	BASEPRI, r3
 8002a02:	f3bf 8f6f 	isb	sy
 8002a06:	f3bf 8f4f 	dsb	sy
 8002a0a:	60fb      	str	r3, [r7, #12]
 8002a0c:	e7fe      	b.n	8002a0c <xTaskRemoveFromUnorderedEventList+0x24>
 8002a0e:	683b      	ldr	r3, [r7, #0]
 8002a10:	f043 4200 	orr.w	r2, r3, #2147483648	; 0x80000000
 8002a14:	687b      	ldr	r3, [r7, #4]
 8002a16:	601a      	str	r2, [r3, #0]
 8002a18:	687b      	ldr	r3, [r7, #4]
 8002a1a:	68db      	ldr	r3, [r3, #12]
 8002a1c:	613b      	str	r3, [r7, #16]
 8002a1e:	693b      	ldr	r3, [r7, #16]
 8002a20:	2b00      	cmp	r3, #0
 8002a22:	d109      	bne.n	8002a38 <xTaskRemoveFromUnorderedEventList+0x50>
 8002a24:	f04f 0310 	mov.w	r3, #16
 8002a28:	f383 8811 	msr	BASEPRI, r3
 8002a2c:	f3bf 8f6f 	isb	sy
 8002a30:	f3bf 8f4f 	dsb	sy
 8002a34:	60bb      	str	r3, [r7, #8]
 8002a36:	e7fe      	b.n	8002a36 <xTaskRemoveFromUnorderedEventList+0x4e>
 8002a38:	6878      	ldr	r0, [r7, #4]
 8002a3a:	f7fd feaf 	bl	800079c <uxListRemove>
 8002a3e:	693b      	ldr	r3, [r7, #16]
 8002a40:	3304      	adds	r3, #4
 8002a42:	4618      	mov	r0, r3
 8002a44:	f7fd feaa 	bl	800079c <uxListRemove>
 8002a48:	693b      	ldr	r3, [r7, #16]
 8002a4a:	6adb      	ldr	r3, [r3, #44]	; 0x2c
 8002a4c:	2201      	movs	r2, #1
 8002a4e:	409a      	lsls	r2, r3
 8002a50:	4b14      	ldr	r3, [pc, #80]	; (8002aa4 <xTaskRemoveFromUnorderedEventList+0xbc>)
 8002a52:	681b      	ldr	r3, [r3, #0]
 8002a54:	4313      	orrs	r3, r2
 8002a56:	4a13      	ldr	r2, [pc, #76]	; (8002aa4 <xTaskRemoveFromUnorderedEventList+0xbc>)
 8002a58:	6013      	str	r3, [r2, #0]
 8002a5a:	693b      	ldr	r3, [r7, #16]
 8002a5c:	6ada      	ldr	r2, [r3, #44]	; 0x2c
 8002a5e:	4613      	mov	r3, r2
 8002a60:	009b      	lsls	r3, r3, #2
 8002a62:	4413      	add	r3, r2
 8002a64:	009b      	lsls	r3, r3, #2
 8002a66:	4a10      	ldr	r2, [pc, #64]	; (8002aa8 <xTaskRemoveFromUnorderedEventList+0xc0>)
 8002a68:	441a      	add	r2, r3
 8002a6a:	693b      	ldr	r3, [r7, #16]
 8002a6c:	3304      	adds	r3, #4
 8002a6e:	4619      	mov	r1, r3
 8002a70:	4610      	mov	r0, r2
 8002a72:	f7fd fe36 	bl	80006e2 <vListInsertEnd>
 8002a76:	693b      	ldr	r3, [r7, #16]
 8002a78:	6ada      	ldr	r2, [r3, #44]	; 0x2c
 8002a7a:	4b0c      	ldr	r3, [pc, #48]	; (8002aac <xTaskRemoveFromUnorderedEventList+0xc4>)
 8002a7c:	681b      	ldr	r3, [r3, #0]
 8002a7e:	6adb      	ldr	r3, [r3, #44]	; 0x2c
 8002a80:	429a      	cmp	r2, r3
 8002a82:	d905      	bls.n	8002a90 <xTaskRemoveFromUnorderedEventList+0xa8>
 8002a84:	2301      	movs	r3, #1
 8002a86:	617b      	str	r3, [r7, #20]
 8002a88:	4b09      	ldr	r3, [pc, #36]	; (8002ab0 <xTaskRemoveFromUnorderedEventList+0xc8>)
 8002a8a:	2201      	movs	r2, #1
 8002a8c:	601a      	str	r2, [r3, #0]
 8002a8e:	e001      	b.n	8002a94 <xTaskRemoveFromUnorderedEventList+0xac>
 8002a90:	2300      	movs	r3, #0
 8002a92:	617b      	str	r3, [r7, #20]
 8002a94:	697b      	ldr	r3, [r7, #20]
 8002a96:	4618      	mov	r0, r3
 8002a98:	3718      	adds	r7, #24
 8002a9a:	46bd      	mov	sp, r7
 8002a9c:	bd80      	pop	{r7, pc}
 8002a9e:	bf00      	nop
 8002aa0:	20000ad4 	ldrdcs	r0, [r0], -r4
 8002aa4:	20000ab8 			; <UNDEFINED> instruction: 0x20000ab8
 8002aa8:	200009dc 	ldrdcs	r0, [r0], -ip
 8002aac:	200009d8 	ldrdcs	r0, [r0], -r8
 8002ab0:	20000ac4 	andcs	r0, r0, r4, asr #21

08002ab4 <vTaskSetTimeOutState>:
 8002ab4:	b480      	push	{r7}
 8002ab6:	b085      	sub	sp, #20
 8002ab8:	af00      	add	r7, sp, #0
 8002aba:	6078      	str	r0, [r7, #4]
 8002abc:	687b      	ldr	r3, [r7, #4]
 8002abe:	2b00      	cmp	r3, #0
 8002ac0:	d109      	bne.n	8002ad6 <vTaskSetTimeOutState+0x22>
 8002ac2:	f04f 0310 	mov.w	r3, #16
 8002ac6:	f383 8811 	msr	BASEPRI, r3
 8002aca:	f3bf 8f6f 	isb	sy
 8002ace:	f3bf 8f4f 	dsb	sy
 8002ad2:	60fb      	str	r3, [r7, #12]
 8002ad4:	e7fe      	b.n	8002ad4 <vTaskSetTimeOutState+0x20>
 8002ad6:	4b07      	ldr	r3, [pc, #28]	; (8002af4 <vTaskSetTimeOutState+0x40>)
 8002ad8:	681a      	ldr	r2, [r3, #0]
 8002ada:	687b      	ldr	r3, [r7, #4]
 8002adc:	601a      	str	r2, [r3, #0]
 8002ade:	4b06      	ldr	r3, [pc, #24]	; (8002af8 <vTaskSetTimeOutState+0x44>)
 8002ae0:	681a      	ldr	r2, [r3, #0]
 8002ae2:	687b      	ldr	r3, [r7, #4]
 8002ae4:	605a      	str	r2, [r3, #4]
 8002ae6:	bf00      	nop
 8002ae8:	3714      	adds	r7, #20
 8002aea:	46bd      	mov	sp, r7
 8002aec:	f85d 7b04 	ldr.w	r7, [sp], #4
 8002af0:	4770      	bx	lr
 8002af2:	bf00      	nop
 8002af4:	20000ac8 	andcs	r0, r0, r8, asr #21
 8002af8:	20000ab4 			; <UNDEFINED> instruction: 0x20000ab4

08002afc <xTaskCheckForTimeOut>:
 8002afc:	b580      	push	{r7, lr}
 8002afe:	b086      	sub	sp, #24
 8002b00:	af00      	add	r7, sp, #0
 8002b02:	6078      	str	r0, [r7, #4]
 8002b04:	6039      	str	r1, [r7, #0]
 8002b06:	687b      	ldr	r3, [r7, #4]
 8002b08:	2b00      	cmp	r3, #0
 8002b0a:	d109      	bne.n	8002b20 <xTaskCheckForTimeOut+0x24>
 8002b0c:	f04f 0310 	mov.w	r3, #16
 8002b10:	f383 8811 	msr	BASEPRI, r3
 8002b14:	f3bf 8f6f 	isb	sy
 8002b18:	f3bf 8f4f 	dsb	sy
 8002b1c:	60fb      	str	r3, [r7, #12]
 8002b1e:	e7fe      	b.n	8002b1e <xTaskCheckForTimeOut+0x22>
 8002b20:	683b      	ldr	r3, [r7, #0]
 8002b22:	2b00      	cmp	r3, #0
 8002b24:	d109      	bne.n	8002b3a <xTaskCheckForTimeOut+0x3e>
 8002b26:	f04f 0310 	mov.w	r3, #16
 8002b2a:	f383 8811 	msr	BASEPRI, r3
 8002b2e:	f3bf 8f6f 	isb	sy
 8002b32:	f3bf 8f4f 	dsb	sy
 8002b36:	60bb      	str	r3, [r7, #8]
 8002b38:	e7fe      	b.n	8002b38 <xTaskCheckForTimeOut+0x3c>
 8002b3a:	f001 fc43 	bl	80043c4 <vPortEnterCritical>
 8002b3e:	4b1c      	ldr	r3, [pc, #112]	; (8002bb0 <xTaskCheckForTimeOut+0xb4>)
 8002b40:	681b      	ldr	r3, [r3, #0]
 8002b42:	613b      	str	r3, [r7, #16]
 8002b44:	683b      	ldr	r3, [r7, #0]
 8002b46:	681b      	ldr	r3, [r3, #0]
 8002b48:	f1b3 3fff 	cmp.w	r3, #4294967295	; 0xffffffff
 8002b4c:	d102      	bne.n	8002b54 <xTaskCheckForTimeOut+0x58>
 8002b4e:	2300      	movs	r3, #0
 8002b50:	617b      	str	r3, [r7, #20]
 8002b52:	e026      	b.n	8002ba2 <xTaskCheckForTimeOut+0xa6>
 8002b54:	687b      	ldr	r3, [r7, #4]
 8002b56:	681a      	ldr	r2, [r3, #0]
 8002b58:	4b16      	ldr	r3, [pc, #88]	; (8002bb4 <xTaskCheckForTimeOut+0xb8>)
 8002b5a:	681b      	ldr	r3, [r3, #0]
 8002b5c:	429a      	cmp	r2, r3
 8002b5e:	d007      	beq.n	8002b70 <xTaskCheckForTimeOut+0x74>
 8002b60:	687b      	ldr	r3, [r7, #4]
 8002b62:	685b      	ldr	r3, [r3, #4]
 8002b64:	693a      	ldr	r2, [r7, #16]
 8002b66:	429a      	cmp	r2, r3
 8002b68:	d302      	bcc.n	8002b70 <xTaskCheckForTimeOut+0x74>
 8002b6a:	2301      	movs	r3, #1
 8002b6c:	617b      	str	r3, [r7, #20]
 8002b6e:	e018      	b.n	8002ba2 <xTaskCheckForTimeOut+0xa6>
 8002b70:	687b      	ldr	r3, [r7, #4]
 8002b72:	685b      	ldr	r3, [r3, #4]
 8002b74:	693a      	ldr	r2, [r7, #16]
 8002b76:	1ad2      	subs	r2, r2, r3
 8002b78:	683b      	ldr	r3, [r7, #0]
 8002b7a:	681b      	ldr	r3, [r3, #0]
 8002b7c:	429a      	cmp	r2, r3
 8002b7e:	d20e      	bcs.n	8002b9e <xTaskCheckForTimeOut+0xa2>
 8002b80:	683b      	ldr	r3, [r7, #0]
 8002b82:	681a      	ldr	r2, [r3, #0]
 8002b84:	687b      	ldr	r3, [r7, #4]
 8002b86:	6859      	ldr	r1, [r3, #4]
 8002b88:	693b      	ldr	r3, [r7, #16]
 8002b8a:	1acb      	subs	r3, r1, r3
 8002b8c:	441a      	add	r2, r3
 8002b8e:	683b      	ldr	r3, [r7, #0]
 8002b90:	601a      	str	r2, [r3, #0]
 8002b92:	6878      	ldr	r0, [r7, #4]
 8002b94:	f7ff ff8e 	bl	8002ab4 <vTaskSetTimeOutState>
 8002b98:	2300      	movs	r3, #0
 8002b9a:	617b      	str	r3, [r7, #20]
 8002b9c:	e001      	b.n	8002ba2 <xTaskCheckForTimeOut+0xa6>
 8002b9e:	2301      	movs	r3, #1
 8002ba0:	617b      	str	r3, [r7, #20]
 8002ba2:	f001 fc3d 	bl	8004420 <vPortExitCritical>
 8002ba6:	697b      	ldr	r3, [r7, #20]
 8002ba8:	4618      	mov	r0, r3
 8002baa:	3718      	adds	r7, #24
 8002bac:	46bd      	mov	sp, r7
 8002bae:	bd80      	pop	{r7, pc}
 8002bb0:	20000ab4 			; <UNDEFINED> instruction: 0x20000ab4
 8002bb4:	20000ac8 	andcs	r0, r0, r8, asr #21

08002bb8 <vTaskMissedYield>:
 8002bb8:	b480      	push	{r7}
 8002bba:	af00      	add	r7, sp, #0
 8002bbc:	4b03      	ldr	r3, [pc, #12]	; (8002bcc <vTaskMissedYield+0x14>)
 8002bbe:	2201      	movs	r2, #1
 8002bc0:	601a      	str	r2, [r3, #0]
 8002bc2:	bf00      	nop
 8002bc4:	46bd      	mov	sp, r7
 8002bc6:	f85d 7b04 	ldr.w	r7, [sp], #4
 8002bca:	4770      	bx	lr
 8002bcc:	20000ac4 	andcs	r0, r0, r4, asr #21

08002bd0 <uxTaskGetTaskNumber>:
 8002bd0:	b480      	push	{r7}
 8002bd2:	b085      	sub	sp, #20
 8002bd4:	af00      	add	r7, sp, #0
 8002bd6:	6078      	str	r0, [r7, #4]
 8002bd8:	687b      	ldr	r3, [r7, #4]
 8002bda:	2b00      	cmp	r3, #0
 8002bdc:	d005      	beq.n	8002bea <uxTaskGetTaskNumber+0x1a>
 8002bde:	687b      	ldr	r3, [r7, #4]
 8002be0:	60bb      	str	r3, [r7, #8]
 8002be2:	68bb      	ldr	r3, [r7, #8]
 8002be4:	6c9b      	ldr	r3, [r3, #72]	; 0x48
 8002be6:	60fb      	str	r3, [r7, #12]
 8002be8:	e001      	b.n	8002bee <uxTaskGetTaskNumber+0x1e>
 8002bea:	2300      	movs	r3, #0
 8002bec:	60fb      	str	r3, [r7, #12]
 8002bee:	68fb      	ldr	r3, [r7, #12]
 8002bf0:	4618      	mov	r0, r3
 8002bf2:	3714      	adds	r7, #20
 8002bf4:	46bd      	mov	sp, r7
 8002bf6:	f85d 7b04 	ldr.w	r7, [sp], #4
 8002bfa:	4770      	bx	lr

08002bfc <vTaskSetTaskNumber>:
 8002bfc:	b480      	push	{r7}
 8002bfe:	b085      	sub	sp, #20
 8002c00:	af00      	add	r7, sp, #0
 8002c02:	6078      	str	r0, [r7, #4]
 8002c04:	6039      	str	r1, [r7, #0]
 8002c06:	687b      	ldr	r3, [r7, #4]
 8002c08:	2b00      	cmp	r3, #0
 8002c0a:	d004      	beq.n	8002c16 <vTaskSetTaskNumber+0x1a>
 8002c0c:	687b      	ldr	r3, [r7, #4]
 8002c0e:	60fb      	str	r3, [r7, #12]
 8002c10:	68fb      	ldr	r3, [r7, #12]
 8002c12:	683a      	ldr	r2, [r7, #0]
 8002c14:	649a      	str	r2, [r3, #72]	; 0x48
 8002c16:	bf00      	nop
 8002c18:	3714      	adds	r7, #20
 8002c1a:	46bd      	mov	sp, r7
 8002c1c:	f85d 7b04 	ldr.w	r7, [sp], #4
 8002c20:	4770      	bx	lr

08002c22 <prvIdleTask>:
 8002c22:	b580      	push	{r7, lr}
 8002c24:	b082      	sub	sp, #8
 8002c26:	af00      	add	r7, sp, #0
 8002c28:	6078      	str	r0, [r7, #4]
 8002c2a:	f000 f895 	bl	8002d58 <prvCheckTasksWaitingTermination>
 8002c2e:	e7fc      	b.n	8002c2a <prvIdleTask+0x8>

08002c30 <prvInitialiseTCBVariables>:
 8002c30:	b580      	push	{r7, lr}
 8002c32:	b086      	sub	sp, #24
 8002c34:	af00      	add	r7, sp, #0
 8002c36:	60f8      	str	r0, [r7, #12]
 8002c38:	60b9      	str	r1, [r7, #8]
 8002c3a:	607a      	str	r2, [r7, #4]
 8002c3c:	603b      	str	r3, [r7, #0]
 8002c3e:	2300      	movs	r3, #0
 8002c40:	617b      	str	r3, [r7, #20]
 8002c42:	e012      	b.n	8002c6a <prvInitialiseTCBVariables+0x3a>
 8002c44:	68ba      	ldr	r2, [r7, #8]
 8002c46:	697b      	ldr	r3, [r7, #20]
 8002c48:	4413      	add	r3, r2
 8002c4a:	7819      	ldrb	r1, [r3, #0]
 8002c4c:	68fa      	ldr	r2, [r7, #12]
 8002c4e:	697b      	ldr	r3, [r7, #20]
 8002c50:	4413      	add	r3, r2
 8002c52:	3334      	adds	r3, #52	; 0x34
 8002c54:	460a      	mov	r2, r1
 8002c56:	701a      	strb	r2, [r3, #0]
 8002c58:	68ba      	ldr	r2, [r7, #8]
 8002c5a:	697b      	ldr	r3, [r7, #20]
 8002c5c:	4413      	add	r3, r2
 8002c5e:	781b      	ldrb	r3, [r3, #0]
 8002c60:	2b00      	cmp	r3, #0
 8002c62:	d006      	beq.n	8002c72 <prvInitialiseTCBVariables+0x42>
 8002c64:	697b      	ldr	r3, [r7, #20]
 8002c66:	3301      	adds	r3, #1
 8002c68:	617b      	str	r3, [r7, #20]
 8002c6a:	697b      	ldr	r3, [r7, #20]
 8002c6c:	2b0f      	cmp	r3, #15
 8002c6e:	d9e9      	bls.n	8002c44 <prvInitialiseTCBVariables+0x14>
 8002c70:	e000      	b.n	8002c74 <prvInitialiseTCBVariables+0x44>
 8002c72:	bf00      	nop
 8002c74:	68fb      	ldr	r3, [r7, #12]
 8002c76:	2200      	movs	r2, #0
 8002c78:	f883 2043 	strb.w	r2, [r3, #67]	; 0x43
 8002c7c:	687b      	ldr	r3, [r7, #4]
 8002c7e:	2b04      	cmp	r3, #4
 8002c80:	d901      	bls.n	8002c86 <prvInitialiseTCBVariables+0x56>
 8002c82:	2304      	movs	r3, #4
 8002c84:	607b      	str	r3, [r7, #4]
 8002c86:	68fb      	ldr	r3, [r7, #12]
 8002c88:	687a      	ldr	r2, [r7, #4]
 8002c8a:	62da      	str	r2, [r3, #44]	; 0x2c
 8002c8c:	68fb      	ldr	r3, [r7, #12]
 8002c8e:	687a      	ldr	r2, [r7, #4]
 8002c90:	64da      	str	r2, [r3, #76]	; 0x4c
 8002c92:	68fb      	ldr	r3, [r7, #12]
 8002c94:	2200      	movs	r2, #0
 8002c96:	651a      	str	r2, [r3, #80]	; 0x50
 8002c98:	68fb      	ldr	r3, [r7, #12]
 8002c9a:	3304      	adds	r3, #4
 8002c9c:	4618      	mov	r0, r3
 8002c9e:	f7fd fd13 	bl	80006c8 <vListInitialiseItem>
 8002ca2:	68fb      	ldr	r3, [r7, #12]
 8002ca4:	3318      	adds	r3, #24
 8002ca6:	4618      	mov	r0, r3
 8002ca8:	f7fd fd0e 	bl	80006c8 <vListInitialiseItem>
 8002cac:	68fb      	ldr	r3, [r7, #12]
 8002cae:	68fa      	ldr	r2, [r7, #12]
 8002cb0:	611a      	str	r2, [r3, #16]
 8002cb2:	687b      	ldr	r3, [r7, #4]
 8002cb4:	f1c3 0205 	rsb	r2, r3, #5
 8002cb8:	68fb      	ldr	r3, [r7, #12]
 8002cba:	619a      	str	r2, [r3, #24]
 8002cbc:	68fb      	ldr	r3, [r7, #12]
 8002cbe:	68fa      	ldr	r2, [r7, #12]
 8002cc0:	625a      	str	r2, [r3, #36]	; 0x24
 8002cc2:	68fb      	ldr	r3, [r7, #12]
 8002cc4:	2200      	movs	r2, #0
 8002cc6:	655a      	str	r2, [r3, #84]	; 0x54
 8002cc8:	68fb      	ldr	r3, [r7, #12]
 8002cca:	2200      	movs	r2, #0
 8002ccc:	f883 2058 	strb.w	r2, [r3, #88]	; 0x58
 8002cd0:	bf00      	nop
 8002cd2:	3718      	adds	r7, #24
 8002cd4:	46bd      	mov	sp, r7
 8002cd6:	bd80      	pop	{r7, pc}

08002cd8 <prvInitialiseTaskLists>:
 8002cd8:	b580      	push	{r7, lr}
 8002cda:	b082      	sub	sp, #8
 8002cdc:	af00      	add	r7, sp, #0
 8002cde:	2300      	movs	r3, #0
 8002ce0:	607b      	str	r3, [r7, #4]
 8002ce2:	e00c      	b.n	8002cfe <prvInitialiseTaskLists+0x26>
 8002ce4:	687a      	ldr	r2, [r7, #4]
 8002ce6:	4613      	mov	r3, r2
 8002ce8:	009b      	lsls	r3, r3, #2
 8002cea:	4413      	add	r3, r2
 8002cec:	009b      	lsls	r3, r3, #2
 8002cee:	4a12      	ldr	r2, [pc, #72]	; (8002d38 <prvInitialiseTaskLists+0x60>)
 8002cf0:	4413      	add	r3, r2
 8002cf2:	4618      	mov	r0, r3
 8002cf4:	f7fd fcc8 	bl	8000688 <vListInitialise>
 8002cf8:	687b      	ldr	r3, [r7, #4]
 8002cfa:	3301      	adds	r3, #1
 8002cfc:	607b      	str	r3, [r7, #4]
 8002cfe:	687b      	ldr	r3, [r7, #4]
 8002d00:	2b04      	cmp	r3, #4
 8002d02:	d9ef      	bls.n	8002ce4 <prvInitialiseTaskLists+0xc>
 8002d04:	480d      	ldr	r0, [pc, #52]	; (8002d3c <prvInitialiseTaskLists+0x64>)
 8002d06:	f7fd fcbf 	bl	8000688 <vListInitialise>
 8002d0a:	480d      	ldr	r0, [pc, #52]	; (8002d40 <prvInitialiseTaskLists+0x68>)
 8002d0c:	f7fd fcbc 	bl	8000688 <vListInitialise>
 8002d10:	480c      	ldr	r0, [pc, #48]	; (8002d44 <prvInitialiseTaskLists+0x6c>)
 8002d12:	f7fd fcb9 	bl	8000688 <vListInitialise>
 8002d16:	480c      	ldr	r0, [pc, #48]	; (8002d48 <prvInitialiseTaskLists+0x70>)
 8002d18:	f7fd fcb6 	bl	8000688 <vListInitialise>
 8002d1c:	480b      	ldr	r0, [pc, #44]	; (8002d4c <prvInitialiseTaskLists+0x74>)
 8002d1e:	f7fd fcb3 	bl	8000688 <vListInitialise>
 8002d22:	4b0b      	ldr	r3, [pc, #44]	; (8002d50 <prvInitialiseTaskLists+0x78>)
 8002d24:	4a05      	ldr	r2, [pc, #20]	; (8002d3c <prvInitialiseTaskLists+0x64>)
 8002d26:	601a      	str	r2, [r3, #0]
 8002d28:	4b0a      	ldr	r3, [pc, #40]	; (8002d54 <prvInitialiseTaskLists+0x7c>)
 8002d2a:	4a05      	ldr	r2, [pc, #20]	; (8002d40 <prvInitialiseTaskLists+0x68>)
 8002d2c:	601a      	str	r2, [r3, #0]
 8002d2e:	bf00      	nop
 8002d30:	3708      	adds	r7, #8
 8002d32:	46bd      	mov	sp, r7
 8002d34:	bd80      	pop	{r7, pc}
 8002d36:	bf00      	nop
 8002d38:	200009dc 	ldrdcs	r0, [r0], -ip
 8002d3c:	20000a40 	andcs	r0, r0, r0, asr #20
 8002d40:	20000a54 	andcs	r0, r0, r4, asr sl
 8002d44:	20000a70 	andcs	r0, r0, r0, ror sl
 8002d48:	20000a84 	andcs	r0, r0, r4, lsl #21
 8002d4c:	20000a9c 	mulcs	r0, ip, sl
 8002d50:	20000a68 	andcs	r0, r0, r8, ror #20
 8002d54:	20000a6c 	andcs	r0, r0, ip, ror #20

08002d58 <prvCheckTasksWaitingTermination>:
 8002d58:	b580      	push	{r7, lr}
 8002d5a:	b082      	sub	sp, #8
 8002d5c:	af00      	add	r7, sp, #0
 8002d5e:	e028      	b.n	8002db2 <prvCheckTasksWaitingTermination+0x5a>
 8002d60:	f7ff fa50 	bl	8002204 <vTaskSuspendAll>
 8002d64:	4b17      	ldr	r3, [pc, #92]	; (8002dc4 <prvCheckTasksWaitingTermination+0x6c>)
 8002d66:	681b      	ldr	r3, [r3, #0]
 8002d68:	2b00      	cmp	r3, #0
 8002d6a:	bf0c      	ite	eq
 8002d6c:	2301      	moveq	r3, #1
 8002d6e:	2300      	movne	r3, #0
 8002d70:	b2db      	uxtb	r3, r3
 8002d72:	607b      	str	r3, [r7, #4]
 8002d74:	f7ff fa54 	bl	8002220 <xTaskResumeAll>
 8002d78:	687b      	ldr	r3, [r7, #4]
 8002d7a:	2b00      	cmp	r3, #0
 8002d7c:	d119      	bne.n	8002db2 <prvCheckTasksWaitingTermination+0x5a>
 8002d7e:	f001 fb21 	bl	80043c4 <vPortEnterCritical>
 8002d82:	4b10      	ldr	r3, [pc, #64]	; (8002dc4 <prvCheckTasksWaitingTermination+0x6c>)
 8002d84:	68db      	ldr	r3, [r3, #12]
 8002d86:	68db      	ldr	r3, [r3, #12]
 8002d88:	603b      	str	r3, [r7, #0]
 8002d8a:	683b      	ldr	r3, [r7, #0]
 8002d8c:	3304      	adds	r3, #4
 8002d8e:	4618      	mov	r0, r3
 8002d90:	f7fd fd04 	bl	800079c <uxListRemove>
 8002d94:	4b0c      	ldr	r3, [pc, #48]	; (8002dc8 <prvCheckTasksWaitingTermination+0x70>)
 8002d96:	681b      	ldr	r3, [r3, #0]
 8002d98:	3b01      	subs	r3, #1
 8002d9a:	4a0b      	ldr	r2, [pc, #44]	; (8002dc8 <prvCheckTasksWaitingTermination+0x70>)
 8002d9c:	6013      	str	r3, [r2, #0]
 8002d9e:	4b0b      	ldr	r3, [pc, #44]	; (8002dcc <prvCheckTasksWaitingTermination+0x74>)
 8002da0:	681b      	ldr	r3, [r3, #0]
 8002da2:	3b01      	subs	r3, #1
 8002da4:	4a09      	ldr	r2, [pc, #36]	; (8002dcc <prvCheckTasksWaitingTermination+0x74>)
 8002da6:	6013      	str	r3, [r2, #0]
 8002da8:	f001 fb3a 	bl	8004420 <vPortExitCritical>
 8002dac:	6838      	ldr	r0, [r7, #0]
 8002dae:	f000 f922 	bl	8002ff6 <prvDeleteTCB>
 8002db2:	4b06      	ldr	r3, [pc, #24]	; (8002dcc <prvCheckTasksWaitingTermination+0x74>)
 8002db4:	681b      	ldr	r3, [r3, #0]
 8002db6:	2b00      	cmp	r3, #0
 8002db8:	d1d2      	bne.n	8002d60 <prvCheckTasksWaitingTermination+0x8>
 8002dba:	bf00      	nop
 8002dbc:	3708      	adds	r7, #8
 8002dbe:	46bd      	mov	sp, r7
 8002dc0:	bd80      	pop	{r7, pc}
 8002dc2:	bf00      	nop
 8002dc4:	20000a84 	andcs	r0, r0, r4, lsl #21
 8002dc8:	20000ab0 			; <UNDEFINED> instruction: 0x20000ab0
 8002dcc:	20000a98 	mulcs	r0, r8, sl

08002dd0 <prvAddCurrentTaskToDelayedList>:
 8002dd0:	b580      	push	{r7, lr}
 8002dd2:	b082      	sub	sp, #8
 8002dd4:	af00      	add	r7, sp, #0
 8002dd6:	6078      	str	r0, [r7, #4]
 8002dd8:	4b13      	ldr	r3, [pc, #76]	; (8002e28 <prvAddCurrentTaskToDelayedList+0x58>)
 8002dda:	681b      	ldr	r3, [r3, #0]
 8002ddc:	687a      	ldr	r2, [r7, #4]
 8002dde:	605a      	str	r2, [r3, #4]
 8002de0:	4b12      	ldr	r3, [pc, #72]	; (8002e2c <prvAddCurrentTaskToDelayedList+0x5c>)
 8002de2:	681b      	ldr	r3, [r3, #0]
 8002de4:	687a      	ldr	r2, [r7, #4]
 8002de6:	429a      	cmp	r2, r3
 8002de8:	d209      	bcs.n	8002dfe <prvAddCurrentTaskToDelayedList+0x2e>
 8002dea:	4b11      	ldr	r3, [pc, #68]	; (8002e30 <prvAddCurrentTaskToDelayedList+0x60>)
 8002dec:	681a      	ldr	r2, [r3, #0]
 8002dee:	4b0e      	ldr	r3, [pc, #56]	; (8002e28 <prvAddCurrentTaskToDelayedList+0x58>)
 8002df0:	681b      	ldr	r3, [r3, #0]
 8002df2:	3304      	adds	r3, #4
 8002df4:	4619      	mov	r1, r3
 8002df6:	4610      	mov	r0, r2
 8002df8:	f7fd fc97 	bl	800072a <vListInsert>
 8002dfc:	e010      	b.n	8002e20 <prvAddCurrentTaskToDelayedList+0x50>
 8002dfe:	4b0d      	ldr	r3, [pc, #52]	; (8002e34 <prvAddCurrentTaskToDelayedList+0x64>)
 8002e00:	681a      	ldr	r2, [r3, #0]
 8002e02:	4b09      	ldr	r3, [pc, #36]	; (8002e28 <prvAddCurrentTaskToDelayedList+0x58>)
 8002e04:	681b      	ldr	r3, [r3, #0]
 8002e06:	3304      	adds	r3, #4
 8002e08:	4619      	mov	r1, r3
 8002e0a:	4610      	mov	r0, r2
 8002e0c:	f7fd fc8d 	bl	800072a <vListInsert>
 8002e10:	4b09      	ldr	r3, [pc, #36]	; (8002e38 <prvAddCurrentTaskToDelayedList+0x68>)
 8002e12:	681b      	ldr	r3, [r3, #0]
 8002e14:	687a      	ldr	r2, [r7, #4]
 8002e16:	429a      	cmp	r2, r3
 8002e18:	d202      	bcs.n	8002e20 <prvAddCurrentTaskToDelayedList+0x50>
 8002e1a:	4a07      	ldr	r2, [pc, #28]	; (8002e38 <prvAddCurrentTaskToDelayedList+0x68>)
 8002e1c:	687b      	ldr	r3, [r7, #4]
 8002e1e:	6013      	str	r3, [r2, #0]
 8002e20:	bf00      	nop
 8002e22:	3708      	adds	r7, #8
 8002e24:	46bd      	mov	sp, r7
 8002e26:	bd80      	pop	{r7, pc}
 8002e28:	200009d8 	ldrdcs	r0, [r0], -r8
 8002e2c:	20000ab4 			; <UNDEFINED> instruction: 0x20000ab4
 8002e30:	20000a6c 	andcs	r0, r0, ip, ror #20
 8002e34:	20000a68 	andcs	r0, r0, r8, ror #20
 8002e38:	20000ad0 	ldrdcs	r0, [r0], -r0	; <UNPREDICTABLE>

08002e3c <prvAllocateTCBAndStack>:
 8002e3c:	b580      	push	{r7, lr}
 8002e3e:	b084      	sub	sp, #16
 8002e40:	af00      	add	r7, sp, #0
 8002e42:	4603      	mov	r3, r0
 8002e44:	6039      	str	r1, [r7, #0]
 8002e46:	80fb      	strh	r3, [r7, #6]
 8002e48:	683b      	ldr	r3, [r7, #0]
 8002e4a:	2b00      	cmp	r3, #0
 8002e4c:	d106      	bne.n	8002e5c <prvAllocateTCBAndStack+0x20>
 8002e4e:	88fb      	ldrh	r3, [r7, #6]
 8002e50:	009b      	lsls	r3, r3, #2
 8002e52:	4618      	mov	r0, r3
 8002e54:	f001 fbc6 	bl	80045e4 <pvPortMalloc>
 8002e58:	4603      	mov	r3, r0
 8002e5a:	e000      	b.n	8002e5e <prvAllocateTCBAndStack+0x22>
 8002e5c:	683b      	ldr	r3, [r7, #0]
 8002e5e:	60bb      	str	r3, [r7, #8]
 8002e60:	68bb      	ldr	r3, [r7, #8]
 8002e62:	2b00      	cmp	r3, #0
 8002e64:	d00e      	beq.n	8002e84 <prvAllocateTCBAndStack+0x48>
 8002e66:	205c      	movs	r0, #92	; 0x5c
 8002e68:	f001 fbbc 	bl	80045e4 <pvPortMalloc>
 8002e6c:	60f8      	str	r0, [r7, #12]
 8002e6e:	68fb      	ldr	r3, [r7, #12]
 8002e70:	2b00      	cmp	r3, #0
 8002e72:	d003      	beq.n	8002e7c <prvAllocateTCBAndStack+0x40>
 8002e74:	68fb      	ldr	r3, [r7, #12]
 8002e76:	68ba      	ldr	r2, [r7, #8]
 8002e78:	631a      	str	r2, [r3, #48]	; 0x30
 8002e7a:	e005      	b.n	8002e88 <prvAllocateTCBAndStack+0x4c>
 8002e7c:	68b8      	ldr	r0, [r7, #8]
 8002e7e:	f001 fc73 	bl	8004768 <vPortFree>
 8002e82:	e001      	b.n	8002e88 <prvAllocateTCBAndStack+0x4c>
 8002e84:	2300      	movs	r3, #0
 8002e86:	60fb      	str	r3, [r7, #12]
 8002e88:	68fb      	ldr	r3, [r7, #12]
 8002e8a:	2b00      	cmp	r3, #0
 8002e8c:	d007      	beq.n	8002e9e <prvAllocateTCBAndStack+0x62>
 8002e8e:	68fb      	ldr	r3, [r7, #12]
 8002e90:	6b18      	ldr	r0, [r3, #48]	; 0x30
 8002e92:	88fb      	ldrh	r3, [r7, #6]
 8002e94:	009b      	lsls	r3, r3, #2
 8002e96:	461a      	mov	r2, r3
 8002e98:	21a5      	movs	r1, #165	; 0xa5
 8002e9a:	f00f fd51 	bl	8012940 <memset>
 8002e9e:	68fb      	ldr	r3, [r7, #12]
 8002ea0:	4618      	mov	r0, r3
 8002ea2:	3710      	adds	r7, #16
 8002ea4:	46bd      	mov	sp, r7
 8002ea6:	bd80      	pop	{r7, pc}

08002ea8 <prvListTaskWithinSingleList>:
 8002ea8:	b590      	push	{r4, r7, lr}
 8002eaa:	b08b      	sub	sp, #44	; 0x2c
 8002eac:	af00      	add	r7, sp, #0
 8002eae:	60f8      	str	r0, [r7, #12]
 8002eb0:	60b9      	str	r1, [r7, #8]
 8002eb2:	4613      	mov	r3, r2
 8002eb4:	71fb      	strb	r3, [r7, #7]
 8002eb6:	2300      	movs	r3, #0
 8002eb8:	627b      	str	r3, [r7, #36]	; 0x24
 8002eba:	68bb      	ldr	r3, [r7, #8]
 8002ebc:	681b      	ldr	r3, [r3, #0]
 8002ebe:	2b00      	cmp	r3, #0
 8002ec0:	d078      	beq.n	8002fb4 <prvListTaskWithinSingleList+0x10c>
 8002ec2:	68bb      	ldr	r3, [r7, #8]
 8002ec4:	623b      	str	r3, [r7, #32]
 8002ec6:	6a3b      	ldr	r3, [r7, #32]
 8002ec8:	685b      	ldr	r3, [r3, #4]
 8002eca:	685a      	ldr	r2, [r3, #4]
 8002ecc:	6a3b      	ldr	r3, [r7, #32]
 8002ece:	605a      	str	r2, [r3, #4]
 8002ed0:	6a3b      	ldr	r3, [r7, #32]
 8002ed2:	685a      	ldr	r2, [r3, #4]
 8002ed4:	6a3b      	ldr	r3, [r7, #32]
 8002ed6:	3308      	adds	r3, #8
 8002ed8:	429a      	cmp	r2, r3
 8002eda:	d104      	bne.n	8002ee6 <prvListTaskWithinSingleList+0x3e>
 8002edc:	6a3b      	ldr	r3, [r7, #32]
 8002ede:	685b      	ldr	r3, [r3, #4]
 8002ee0:	685a      	ldr	r2, [r3, #4]
 8002ee2:	6a3b      	ldr	r3, [r7, #32]
 8002ee4:	605a      	str	r2, [r3, #4]
 8002ee6:	6a3b      	ldr	r3, [r7, #32]
 8002ee8:	685b      	ldr	r3, [r3, #4]
 8002eea:	68db      	ldr	r3, [r3, #12]
 8002eec:	61fb      	str	r3, [r7, #28]
 8002eee:	68bb      	ldr	r3, [r7, #8]
 8002ef0:	61bb      	str	r3, [r7, #24]
 8002ef2:	69bb      	ldr	r3, [r7, #24]
 8002ef4:	685b      	ldr	r3, [r3, #4]
 8002ef6:	685a      	ldr	r2, [r3, #4]
 8002ef8:	69bb      	ldr	r3, [r7, #24]
 8002efa:	605a      	str	r2, [r3, #4]
 8002efc:	69bb      	ldr	r3, [r7, #24]
 8002efe:	685a      	ldr	r2, [r3, #4]
 8002f00:	69bb      	ldr	r3, [r7, #24]
 8002f02:	3308      	adds	r3, #8
 8002f04:	429a      	cmp	r2, r3
 8002f06:	d104      	bne.n	8002f12 <prvListTaskWithinSingleList+0x6a>
 8002f08:	69bb      	ldr	r3, [r7, #24]
 8002f0a:	685b      	ldr	r3, [r3, #4]
 8002f0c:	685a      	ldr	r2, [r3, #4]
 8002f0e:	69bb      	ldr	r3, [r7, #24]
 8002f10:	605a      	str	r2, [r3, #4]
 8002f12:	69bb      	ldr	r3, [r7, #24]
 8002f14:	685b      	ldr	r3, [r3, #4]
 8002f16:	68db      	ldr	r3, [r3, #12]
 8002f18:	617b      	str	r3, [r7, #20]
 8002f1a:	6a7b      	ldr	r3, [r7, #36]	; 0x24
 8002f1c:	015b      	lsls	r3, r3, #5
 8002f1e:	68fa      	ldr	r2, [r7, #12]
 8002f20:	4413      	add	r3, r2
 8002f22:	697a      	ldr	r2, [r7, #20]
 8002f24:	601a      	str	r2, [r3, #0]
 8002f26:	6a7b      	ldr	r3, [r7, #36]	; 0x24
 8002f28:	015b      	lsls	r3, r3, #5
 8002f2a:	68fa      	ldr	r2, [r7, #12]
 8002f2c:	4413      	add	r3, r2
 8002f2e:	697a      	ldr	r2, [r7, #20]
 8002f30:	3234      	adds	r2, #52	; 0x34
 8002f32:	605a      	str	r2, [r3, #4]
 8002f34:	6a7b      	ldr	r3, [r7, #36]	; 0x24
 8002f36:	015b      	lsls	r3, r3, #5
 8002f38:	68fa      	ldr	r2, [r7, #12]
 8002f3a:	4413      	add	r3, r2
 8002f3c:	697a      	ldr	r2, [r7, #20]
 8002f3e:	6c52      	ldr	r2, [r2, #68]	; 0x44
 8002f40:	609a      	str	r2, [r3, #8]
 8002f42:	6a7b      	ldr	r3, [r7, #36]	; 0x24
 8002f44:	015b      	lsls	r3, r3, #5
 8002f46:	68fa      	ldr	r2, [r7, #12]
 8002f48:	4413      	add	r3, r2
 8002f4a:	79fa      	ldrb	r2, [r7, #7]
 8002f4c:	731a      	strb	r2, [r3, #12]
 8002f4e:	6a7b      	ldr	r3, [r7, #36]	; 0x24
 8002f50:	015b      	lsls	r3, r3, #5
 8002f52:	68fa      	ldr	r2, [r7, #12]
 8002f54:	4413      	add	r3, r2
 8002f56:	697a      	ldr	r2, [r7, #20]
 8002f58:	6ad2      	ldr	r2, [r2, #44]	; 0x2c
 8002f5a:	611a      	str	r2, [r3, #16]
 8002f5c:	79fb      	ldrb	r3, [r7, #7]
 8002f5e:	2b03      	cmp	r3, #3
 8002f60:	d109      	bne.n	8002f76 <prvListTaskWithinSingleList+0xce>
 8002f62:	697b      	ldr	r3, [r7, #20]
 8002f64:	6a9b      	ldr	r3, [r3, #40]	; 0x28
 8002f66:	2b00      	cmp	r3, #0
 8002f68:	d005      	beq.n	8002f76 <prvListTaskWithinSingleList+0xce>
 8002f6a:	6a7b      	ldr	r3, [r7, #36]	; 0x24
 8002f6c:	015b      	lsls	r3, r3, #5
 8002f6e:	68fa      	ldr	r2, [r7, #12]
 8002f70:	4413      	add	r3, r2
 8002f72:	2202      	movs	r2, #2
 8002f74:	731a      	strb	r2, [r3, #12]
 8002f76:	6a7b      	ldr	r3, [r7, #36]	; 0x24
 8002f78:	015b      	lsls	r3, r3, #5
 8002f7a:	68fa      	ldr	r2, [r7, #12]
 8002f7c:	4413      	add	r3, r2
 8002f7e:	697a      	ldr	r2, [r7, #20]
 8002f80:	6cd2      	ldr	r2, [r2, #76]	; 0x4c
 8002f82:	615a      	str	r2, [r3, #20]
 8002f84:	6a7b      	ldr	r3, [r7, #36]	; 0x24
 8002f86:	015b      	lsls	r3, r3, #5
 8002f88:	68fa      	ldr	r2, [r7, #12]
 8002f8a:	4413      	add	r3, r2
 8002f8c:	2200      	movs	r2, #0
 8002f8e:	619a      	str	r2, [r3, #24]
 8002f90:	697b      	ldr	r3, [r7, #20]
 8002f92:	6b19      	ldr	r1, [r3, #48]	; 0x30
 8002f94:	6a7b      	ldr	r3, [r7, #36]	; 0x24
 8002f96:	015b      	lsls	r3, r3, #5
 8002f98:	68fa      	ldr	r2, [r7, #12]
 8002f9a:	18d4      	adds	r4, r2, r3
 8002f9c:	4608      	mov	r0, r1
 8002f9e:	f000 f80e 	bl	8002fbe <prvTaskCheckFreeStackSpace>
 8002fa2:	4603      	mov	r3, r0
 8002fa4:	83a3      	strh	r3, [r4, #28]
 8002fa6:	6a7b      	ldr	r3, [r7, #36]	; 0x24
 8002fa8:	3301      	adds	r3, #1
 8002faa:	627b      	str	r3, [r7, #36]	; 0x24
 8002fac:	697a      	ldr	r2, [r7, #20]
 8002fae:	69fb      	ldr	r3, [r7, #28]
 8002fb0:	429a      	cmp	r2, r3
 8002fb2:	d19c      	bne.n	8002eee <prvListTaskWithinSingleList+0x46>
 8002fb4:	6a7b      	ldr	r3, [r7, #36]	; 0x24
 8002fb6:	4618      	mov	r0, r3
 8002fb8:	372c      	adds	r7, #44	; 0x2c
 8002fba:	46bd      	mov	sp, r7
 8002fbc:	bd90      	pop	{r4, r7, pc}

08002fbe <prvTaskCheckFreeStackSpace>:
 8002fbe:	b480      	push	{r7}
 8002fc0:	b085      	sub	sp, #20
 8002fc2:	af00      	add	r7, sp, #0
 8002fc4:	6078      	str	r0, [r7, #4]
 8002fc6:	2300      	movs	r3, #0
 8002fc8:	60fb      	str	r3, [r7, #12]
 8002fca:	e005      	b.n	8002fd8 <prvTaskCheckFreeStackSpace+0x1a>
 8002fcc:	687b      	ldr	r3, [r7, #4]
 8002fce:	3301      	adds	r3, #1
 8002fd0:	607b      	str	r3, [r7, #4]
 8002fd2:	68fb      	ldr	r3, [r7, #12]
 8002fd4:	3301      	adds	r3, #1
 8002fd6:	60fb      	str	r3, [r7, #12]
 8002fd8:	687b      	ldr	r3, [r7, #4]
 8002fda:	781b      	ldrb	r3, [r3, #0]
 8002fdc:	2ba5      	cmp	r3, #165	; 0xa5
 8002fde:	d0f5      	beq.n	8002fcc <prvTaskCheckFreeStackSpace+0xe>
 8002fe0:	68fb      	ldr	r3, [r7, #12]
 8002fe2:	089b      	lsrs	r3, r3, #2
 8002fe4:	60fb      	str	r3, [r7, #12]
 8002fe6:	68fb      	ldr	r3, [r7, #12]
 8002fe8:	b29b      	uxth	r3, r3
 8002fea:	4618      	mov	r0, r3
 8002fec:	3714      	adds	r7, #20
 8002fee:	46bd      	mov	sp, r7
 8002ff0:	f85d 7b04 	ldr.w	r7, [sp], #4
 8002ff4:	4770      	bx	lr

08002ff6 <prvDeleteTCB>:
 8002ff6:	b580      	push	{r7, lr}
 8002ff8:	b082      	sub	sp, #8
 8002ffa:	af00      	add	r7, sp, #0
 8002ffc:	6078      	str	r0, [r7, #4]
 8002ffe:	687b      	ldr	r3, [r7, #4]
 8003000:	6b1b      	ldr	r3, [r3, #48]	; 0x30
 8003002:	4618      	mov	r0, r3
 8003004:	f001 fbb0 	bl	8004768 <vPortFree>
 8003008:	6878      	ldr	r0, [r7, #4]
 800300a:	f001 fbad 	bl	8004768 <vPortFree>
 800300e:	bf00      	nop
 8003010:	3708      	adds	r7, #8
 8003012:	46bd      	mov	sp, r7
 8003014:	bd80      	pop	{r7, pc}

08003016 <prvResetNextTaskUnblockTime>:
 8003016:	b480      	push	{r7}
 8003018:	b083      	sub	sp, #12
 800301a:	af00      	add	r7, sp, #0
 800301c:	4b0e      	ldr	r3, [pc, #56]	; (8003058 <prvResetNextTaskUnblockTime+0x42>)
 800301e:	681b      	ldr	r3, [r3, #0]
 8003020:	681b      	ldr	r3, [r3, #0]
 8003022:	2b00      	cmp	r3, #0
 8003024:	d101      	bne.n	800302a <prvResetNextTaskUnblockTime+0x14>
 8003026:	2301      	movs	r3, #1
 8003028:	e000      	b.n	800302c <prvResetNextTaskUnblockTime+0x16>
 800302a:	2300      	movs	r3, #0
 800302c:	2b00      	cmp	r3, #0
 800302e:	d004      	beq.n	800303a <prvResetNextTaskUnblockTime+0x24>
 8003030:	4b0a      	ldr	r3, [pc, #40]	; (800305c <prvResetNextTaskUnblockTime+0x46>)
 8003032:	f04f 32ff 	mov.w	r2, #4294967295	; 0xffffffff
 8003036:	601a      	str	r2, [r3, #0]
 8003038:	e008      	b.n	800304c <prvResetNextTaskUnblockTime+0x36>
 800303a:	4b07      	ldr	r3, [pc, #28]	; (8003058 <prvResetNextTaskUnblockTime+0x42>)
 800303c:	681b      	ldr	r3, [r3, #0]
 800303e:	68db      	ldr	r3, [r3, #12]
 8003040:	68db      	ldr	r3, [r3, #12]
 8003042:	607b      	str	r3, [r7, #4]
 8003044:	687b      	ldr	r3, [r7, #4]
 8003046:	685b      	ldr	r3, [r3, #4]
 8003048:	4a04      	ldr	r2, [pc, #16]	; (800305c <prvResetNextTaskUnblockTime+0x46>)
 800304a:	6013      	str	r3, [r2, #0]
 800304c:	bf00      	nop
 800304e:	370c      	adds	r7, #12
 8003050:	46bd      	mov	sp, r7
 8003052:	f85d 7b04 	ldr.w	r7, [sp], #4
 8003056:	4770      	bx	lr
 8003058:	20000a68 	andcs	r0, r0, r8, ror #20
 800305c:	20000ad0 	ldrdcs	r0, [r0], -r0	; <UNPREDICTABLE>

08003060 <xTaskGetCurrentTaskHandle>:
 8003060:	b480      	push	{r7}
 8003062:	b083      	sub	sp, #12
 8003064:	af00      	add	r7, sp, #0
 8003066:	4b05      	ldr	r3, [pc, #20]	; (800307c <xTaskGetCurrentTaskHandle+0x1c>)
 8003068:	681b      	ldr	r3, [r3, #0]
 800306a:	607b      	str	r3, [r7, #4]
 800306c:	687b      	ldr	r3, [r7, #4]
 800306e:	4618      	mov	r0, r3
 8003070:	370c      	adds	r7, #12
 8003072:	46bd      	mov	sp, r7
 8003074:	f85d 7b04 	ldr.w	r7, [sp], #4
 8003078:	4770      	bx	lr
 800307a:	bf00      	nop
 800307c:	200009d8 	ldrdcs	r0, [r0], -r8

08003080 <xTaskGetSchedulerState>:
 8003080:	b480      	push	{r7}
 8003082:	b083      	sub	sp, #12
 8003084:	af00      	add	r7, sp, #0
 8003086:	4b0b      	ldr	r3, [pc, #44]	; (80030b4 <xTaskGetSchedulerState+0x34>)
 8003088:	681b      	ldr	r3, [r3, #0]
 800308a:	2b00      	cmp	r3, #0
 800308c:	d102      	bne.n	8003094 <xTaskGetSchedulerState+0x14>
 800308e:	2301      	movs	r3, #1
 8003090:	607b      	str	r3, [r7, #4]
 8003092:	e008      	b.n	80030a6 <xTaskGetSchedulerState+0x26>
 8003094:	4b08      	ldr	r3, [pc, #32]	; (80030b8 <xTaskGetSchedulerState+0x38>)
 8003096:	681b      	ldr	r3, [r3, #0]
 8003098:	2b00      	cmp	r3, #0
 800309a:	d102      	bne.n	80030a2 <xTaskGetSchedulerState+0x22>
 800309c:	2302      	movs	r3, #2
 800309e:	607b      	str	r3, [r7, #4]
 80030a0:	e001      	b.n	80030a6 <xTaskGetSchedulerState+0x26>
 80030a2:	2300      	movs	r3, #0
 80030a4:	607b      	str	r3, [r7, #4]
 80030a6:	687b      	ldr	r3, [r7, #4]
 80030a8:	4618      	mov	r0, r3
 80030aa:	370c      	adds	r7, #12
 80030ac:	46bd      	mov	sp, r7
 80030ae:	f85d 7b04 	ldr.w	r7, [sp], #4
 80030b2:	4770      	bx	lr
 80030b4:	20000abc 			; <UNDEFINED> instruction: 0x20000abc
 80030b8:	20000ad4 	ldrdcs	r0, [r0], -r4

080030bc <vTaskPriorityInherit>:
 80030bc:	b580      	push	{r7, lr}
 80030be:	b084      	sub	sp, #16
 80030c0:	af00      	add	r7, sp, #0
 80030c2:	6078      	str	r0, [r7, #4]
 80030c4:	687b      	ldr	r3, [r7, #4]
 80030c6:	60fb      	str	r3, [r7, #12]
 80030c8:	687b      	ldr	r3, [r7, #4]
 80030ca:	2b00      	cmp	r3, #0
 80030cc:	d062      	beq.n	8003194 <vTaskPriorityInherit+0xd8>
 80030ce:	68fb      	ldr	r3, [r7, #12]
 80030d0:	6ada      	ldr	r2, [r3, #44]	; 0x2c
 80030d2:	4b32      	ldr	r3, [pc, #200]	; (800319c <vTaskPriorityInherit+0xe0>)
 80030d4:	681b      	ldr	r3, [r3, #0]
 80030d6:	6adb      	ldr	r3, [r3, #44]	; 0x2c
 80030d8:	429a      	cmp	r2, r3
 80030da:	d25b      	bcs.n	8003194 <vTaskPriorityInherit+0xd8>
 80030dc:	68fb      	ldr	r3, [r7, #12]
 80030de:	699b      	ldr	r3, [r3, #24]
 80030e0:	2b00      	cmp	r3, #0
 80030e2:	db06      	blt.n	80030f2 <vTaskPriorityInherit+0x36>
 80030e4:	4b2d      	ldr	r3, [pc, #180]	; (800319c <vTaskPriorityInherit+0xe0>)
 80030e6:	681b      	ldr	r3, [r3, #0]
 80030e8:	6adb      	ldr	r3, [r3, #44]	; 0x2c
 80030ea:	f1c3 0205 	rsb	r2, r3, #5
 80030ee:	68fb      	ldr	r3, [r7, #12]
 80030f0:	619a      	str	r2, [r3, #24]
 80030f2:	68fb      	ldr	r3, [r7, #12]
 80030f4:	6959      	ldr	r1, [r3, #20]
 80030f6:	68fb      	ldr	r3, [r7, #12]
 80030f8:	6ada      	ldr	r2, [r3, #44]	; 0x2c
 80030fa:	4613      	mov	r3, r2
 80030fc:	009b      	lsls	r3, r3, #2
 80030fe:	4413      	add	r3, r2
 8003100:	009b      	lsls	r3, r3, #2
 8003102:	4a27      	ldr	r2, [pc, #156]	; (80031a0 <vTaskPriorityInherit+0xe4>)
 8003104:	4413      	add	r3, r2
 8003106:	4299      	cmp	r1, r3
 8003108:	d101      	bne.n	800310e <vTaskPriorityInherit+0x52>
 800310a:	2301      	movs	r3, #1
 800310c:	e000      	b.n	8003110 <vTaskPriorityInherit+0x54>
 800310e:	2300      	movs	r3, #0
 8003110:	2b00      	cmp	r3, #0
 8003112:	d03a      	beq.n	800318a <vTaskPriorityInherit+0xce>
 8003114:	68fb      	ldr	r3, [r7, #12]
 8003116:	3304      	adds	r3, #4
 8003118:	4618      	mov	r0, r3
 800311a:	f7fd fb3f 	bl	800079c <uxListRemove>
 800311e:	4603      	mov	r3, r0
 8003120:	2b00      	cmp	r3, #0
 8003122:	d115      	bne.n	8003150 <vTaskPriorityInherit+0x94>
 8003124:	68fb      	ldr	r3, [r7, #12]
 8003126:	6ada      	ldr	r2, [r3, #44]	; 0x2c
 8003128:	491d      	ldr	r1, [pc, #116]	; (80031a0 <vTaskPriorityInherit+0xe4>)
 800312a:	4613      	mov	r3, r2
 800312c:	009b      	lsls	r3, r3, #2
 800312e:	4413      	add	r3, r2
 8003130:	009b      	lsls	r3, r3, #2
 8003132:	440b      	add	r3, r1
 8003134:	681b      	ldr	r3, [r3, #0]
 8003136:	2b00      	cmp	r3, #0
 8003138:	d10a      	bne.n	8003150 <vTaskPriorityInherit+0x94>
 800313a:	68fb      	ldr	r3, [r7, #12]
 800313c:	6adb      	ldr	r3, [r3, #44]	; 0x2c
 800313e:	2201      	movs	r2, #1
 8003140:	fa02 f303 	lsl.w	r3, r2, r3
 8003144:	43da      	mvns	r2, r3
 8003146:	4b17      	ldr	r3, [pc, #92]	; (80031a4 <vTaskPriorityInherit+0xe8>)
 8003148:	681b      	ldr	r3, [r3, #0]
 800314a:	4013      	ands	r3, r2
 800314c:	4a15      	ldr	r2, [pc, #84]	; (80031a4 <vTaskPriorityInherit+0xe8>)
 800314e:	6013      	str	r3, [r2, #0]
 8003150:	4b12      	ldr	r3, [pc, #72]	; (800319c <vTaskPriorityInherit+0xe0>)
 8003152:	681b      	ldr	r3, [r3, #0]
 8003154:	6ada      	ldr	r2, [r3, #44]	; 0x2c
 8003156:	68fb      	ldr	r3, [r7, #12]
 8003158:	62da      	str	r2, [r3, #44]	; 0x2c
 800315a:	68fb      	ldr	r3, [r7, #12]
 800315c:	6adb      	ldr	r3, [r3, #44]	; 0x2c
 800315e:	2201      	movs	r2, #1
 8003160:	409a      	lsls	r2, r3
 8003162:	4b10      	ldr	r3, [pc, #64]	; (80031a4 <vTaskPriorityInherit+0xe8>)
 8003164:	681b      	ldr	r3, [r3, #0]
 8003166:	4313      	orrs	r3, r2
 8003168:	4a0e      	ldr	r2, [pc, #56]	; (80031a4 <vTaskPriorityInherit+0xe8>)
 800316a:	6013      	str	r3, [r2, #0]
 800316c:	68fb      	ldr	r3, [r7, #12]
 800316e:	6ada      	ldr	r2, [r3, #44]	; 0x2c
 8003170:	4613      	mov	r3, r2
 8003172:	009b      	lsls	r3, r3, #2
 8003174:	4413      	add	r3, r2
 8003176:	009b      	lsls	r3, r3, #2
 8003178:	4a09      	ldr	r2, [pc, #36]	; (80031a0 <vTaskPriorityInherit+0xe4>)
 800317a:	441a      	add	r2, r3
 800317c:	68fb      	ldr	r3, [r7, #12]
 800317e:	3304      	adds	r3, #4
 8003180:	4619      	mov	r1, r3
 8003182:	4610      	mov	r0, r2
 8003184:	f7fd faad 	bl	80006e2 <vListInsertEnd>
 8003188:	e004      	b.n	8003194 <vTaskPriorityInherit+0xd8>
 800318a:	4b04      	ldr	r3, [pc, #16]	; (800319c <vTaskPriorityInherit+0xe0>)
 800318c:	681b      	ldr	r3, [r3, #0]
 800318e:	6ada      	ldr	r2, [r3, #44]	; 0x2c
 8003190:	68fb      	ldr	r3, [r7, #12]
 8003192:	62da      	str	r2, [r3, #44]	; 0x2c
 8003194:	bf00      	nop
 8003196:	3710      	adds	r7, #16
 8003198:	46bd      	mov	sp, r7
 800319a:	bd80      	pop	{r7, pc}
 800319c:	200009d8 	ldrdcs	r0, [r0], -r8
 80031a0:	200009dc 	ldrdcs	r0, [r0], -ip
 80031a4:	20000ab8 			; <UNDEFINED> instruction: 0x20000ab8

080031a8 <xTaskPriorityDisinherit>:
 80031a8:	b580      	push	{r7, lr}
 80031aa:	b086      	sub	sp, #24
 80031ac:	af00      	add	r7, sp, #0
 80031ae:	6078      	str	r0, [r7, #4]
 80031b0:	687b      	ldr	r3, [r7, #4]
 80031b2:	613b      	str	r3, [r7, #16]
 80031b4:	2300      	movs	r3, #0
 80031b6:	617b      	str	r3, [r7, #20]
 80031b8:	687b      	ldr	r3, [r7, #4]
 80031ba:	2b00      	cmp	r3, #0
 80031bc:	d06c      	beq.n	8003298 <xTaskPriorityDisinherit+0xf0>
 80031be:	4b39      	ldr	r3, [pc, #228]	; (80032a4 <xTaskPriorityDisinherit+0xfc>)
 80031c0:	681b      	ldr	r3, [r3, #0]
 80031c2:	693a      	ldr	r2, [r7, #16]
 80031c4:	429a      	cmp	r2, r3
 80031c6:	d009      	beq.n	80031dc <xTaskPriorityDisinherit+0x34>
 80031c8:	f04f 0310 	mov.w	r3, #16
 80031cc:	f383 8811 	msr	BASEPRI, r3
 80031d0:	f3bf 8f6f 	isb	sy
 80031d4:	f3bf 8f4f 	dsb	sy
 80031d8:	60fb      	str	r3, [r7, #12]
 80031da:	e7fe      	b.n	80031da <xTaskPriorityDisinherit+0x32>
 80031dc:	693b      	ldr	r3, [r7, #16]
 80031de:	6d1b      	ldr	r3, [r3, #80]	; 0x50
 80031e0:	2b00      	cmp	r3, #0
 80031e2:	d109      	bne.n	80031f8 <xTaskPriorityDisinherit+0x50>
 80031e4:	f04f 0310 	mov.w	r3, #16
 80031e8:	f383 8811 	msr	BASEPRI, r3
 80031ec:	f3bf 8f6f 	isb	sy
 80031f0:	f3bf 8f4f 	dsb	sy
 80031f4:	60bb      	str	r3, [r7, #8]
 80031f6:	e7fe      	b.n	80031f6 <xTaskPriorityDisinherit+0x4e>
 80031f8:	693b      	ldr	r3, [r7, #16]
 80031fa:	6d1b      	ldr	r3, [r3, #80]	; 0x50
 80031fc:	1e5a      	subs	r2, r3, #1
 80031fe:	693b      	ldr	r3, [r7, #16]
 8003200:	651a      	str	r2, [r3, #80]	; 0x50
 8003202:	693b      	ldr	r3, [r7, #16]
 8003204:	6ada      	ldr	r2, [r3, #44]	; 0x2c
 8003206:	693b      	ldr	r3, [r7, #16]
 8003208:	6cdb      	ldr	r3, [r3, #76]	; 0x4c
 800320a:	429a      	cmp	r2, r3
 800320c:	d044      	beq.n	8003298 <xTaskPriorityDisinherit+0xf0>
 800320e:	693b      	ldr	r3, [r7, #16]
 8003210:	6d1b      	ldr	r3, [r3, #80]	; 0x50
 8003212:	2b00      	cmp	r3, #0
 8003214:	d140      	bne.n	8003298 <xTaskPriorityDisinherit+0xf0>
 8003216:	693b      	ldr	r3, [r7, #16]
 8003218:	3304      	adds	r3, #4
 800321a:	4618      	mov	r0, r3
 800321c:	f7fd fabe 	bl	800079c <uxListRemove>
 8003220:	4603      	mov	r3, r0
 8003222:	2b00      	cmp	r3, #0
 8003224:	d115      	bne.n	8003252 <xTaskPriorityDisinherit+0xaa>
 8003226:	693b      	ldr	r3, [r7, #16]
 8003228:	6ada      	ldr	r2, [r3, #44]	; 0x2c
 800322a:	491f      	ldr	r1, [pc, #124]	; (80032a8 <xTaskPriorityDisinherit+0x100>)
 800322c:	4613      	mov	r3, r2
 800322e:	009b      	lsls	r3, r3, #2
 8003230:	4413      	add	r3, r2
 8003232:	009b      	lsls	r3, r3, #2
 8003234:	440b      	add	r3, r1
 8003236:	681b      	ldr	r3, [r3, #0]
 8003238:	2b00      	cmp	r3, #0
 800323a:	d10a      	bne.n	8003252 <xTaskPriorityDisinherit+0xaa>
 800323c:	693b      	ldr	r3, [r7, #16]
 800323e:	6adb      	ldr	r3, [r3, #44]	; 0x2c
 8003240:	2201      	movs	r2, #1
 8003242:	fa02 f303 	lsl.w	r3, r2, r3
 8003246:	43da      	mvns	r2, r3
 8003248:	4b18      	ldr	r3, [pc, #96]	; (80032ac <xTaskPriorityDisinherit+0x104>)
 800324a:	681b      	ldr	r3, [r3, #0]
 800324c:	4013      	ands	r3, r2
 800324e:	4a17      	ldr	r2, [pc, #92]	; (80032ac <xTaskPriorityDisinherit+0x104>)
 8003250:	6013      	str	r3, [r2, #0]
 8003252:	693b      	ldr	r3, [r7, #16]
 8003254:	6cda      	ldr	r2, [r3, #76]	; 0x4c
 8003256:	693b      	ldr	r3, [r7, #16]
 8003258:	62da      	str	r2, [r3, #44]	; 0x2c
 800325a:	693b      	ldr	r3, [r7, #16]
 800325c:	6adb      	ldr	r3, [r3, #44]	; 0x2c
 800325e:	f1c3 0205 	rsb	r2, r3, #5
 8003262:	693b      	ldr	r3, [r7, #16]
 8003264:	619a      	str	r2, [r3, #24]
 8003266:	693b      	ldr	r3, [r7, #16]
 8003268:	6adb      	ldr	r3, [r3, #44]	; 0x2c
 800326a:	2201      	movs	r2, #1
 800326c:	409a      	lsls	r2, r3
 800326e:	4b0f      	ldr	r3, [pc, #60]	; (80032ac <xTaskPriorityDisinherit+0x104>)
 8003270:	681b      	ldr	r3, [r3, #0]
 8003272:	4313      	orrs	r3, r2
 8003274:	4a0d      	ldr	r2, [pc, #52]	; (80032ac <xTaskPriorityDisinherit+0x104>)
 8003276:	6013      	str	r3, [r2, #0]
 8003278:	693b      	ldr	r3, [r7, #16]
 800327a:	6ada      	ldr	r2, [r3, #44]	; 0x2c
 800327c:	4613      	mov	r3, r2
 800327e:	009b      	lsls	r3, r3, #2
 8003280:	4413      	add	r3, r2
 8003282:	009b      	lsls	r3, r3, #2
 8003284:	4a08      	ldr	r2, [pc, #32]	; (80032a8 <xTaskPriorityDisinherit+0x100>)
 8003286:	441a      	add	r2, r3
 8003288:	693b      	ldr	r3, [r7, #16]
 800328a:	3304      	adds	r3, #4
 800328c:	4619      	mov	r1, r3
 800328e:	4610      	mov	r0, r2
 8003290:	f7fd fa27 	bl	80006e2 <vListInsertEnd>
 8003294:	2301      	movs	r3, #1
 8003296:	617b      	str	r3, [r7, #20]
 8003298:	697b      	ldr	r3, [r7, #20]
 800329a:	4618      	mov	r0, r3
 800329c:	3718      	adds	r7, #24
 800329e:	46bd      	mov	sp, r7
 80032a0:	bd80      	pop	{r7, pc}
 80032a2:	bf00      	nop
 80032a4:	200009d8 	ldrdcs	r0, [r0], -r8
 80032a8:	200009dc 	ldrdcs	r0, [r0], -ip
 80032ac:	20000ab8 			; <UNDEFINED> instruction: 0x20000ab8

080032b0 <prvWriteNameToBuffer>:
 80032b0:	b580      	push	{r7, lr}
 80032b2:	b084      	sub	sp, #16
 80032b4:	af00      	add	r7, sp, #0
 80032b6:	6078      	str	r0, [r7, #4]
 80032b8:	6039      	str	r1, [r7, #0]
 80032ba:	6839      	ldr	r1, [r7, #0]
 80032bc:	6878      	ldr	r0, [r7, #4]
 80032be:	f00f fc09 	bl	8012ad4 <strcpy>
 80032c2:	6878      	ldr	r0, [r7, #4]
 80032c4:	f00e fc3c 	bl	8011b40 <strlen>
 80032c8:	60f8      	str	r0, [r7, #12]
 80032ca:	e007      	b.n	80032dc <prvWriteNameToBuffer+0x2c>
 80032cc:	687a      	ldr	r2, [r7, #4]
 80032ce:	68fb      	ldr	r3, [r7, #12]
 80032d0:	4413      	add	r3, r2
 80032d2:	2220      	movs	r2, #32
 80032d4:	701a      	strb	r2, [r3, #0]
 80032d6:	68fb      	ldr	r3, [r7, #12]
 80032d8:	3301      	adds	r3, #1
 80032da:	60fb      	str	r3, [r7, #12]
 80032dc:	68fb      	ldr	r3, [r7, #12]
 80032de:	2b0e      	cmp	r3, #14
 80032e0:	d9f4      	bls.n	80032cc <prvWriteNameToBuffer+0x1c>
 80032e2:	687a      	ldr	r2, [r7, #4]
 80032e4:	68fb      	ldr	r3, [r7, #12]
 80032e6:	4413      	add	r3, r2
 80032e8:	2200      	movs	r2, #0
 80032ea:	701a      	strb	r2, [r3, #0]
 80032ec:	687a      	ldr	r2, [r7, #4]
 80032ee:	68fb      	ldr	r3, [r7, #12]
 80032f0:	4413      	add	r3, r2
 80032f2:	4618      	mov	r0, r3
 80032f4:	3710      	adds	r7, #16
 80032f6:	46bd      	mov	sp, r7
 80032f8:	bd80      	pop	{r7, pc}

080032fa <vTaskList>:
 80032fa:	b590      	push	{r4, r7, lr}
 80032fc:	b089      	sub	sp, #36	; 0x24
 80032fe:	af02      	add	r7, sp, #8
 8003300:	6078      	str	r0, [r7, #4]
 8003302:	687b      	ldr	r3, [r7, #4]
 8003304:	2200      	movs	r2, #0
 8003306:	701a      	strb	r2, [r3, #0]
 8003308:	4b39      	ldr	r3, [pc, #228]	; (80033f0 <vTaskList+0xf6>)
 800330a:	681b      	ldr	r3, [r3, #0]
 800330c:	60fb      	str	r3, [r7, #12]
 800330e:	4b38      	ldr	r3, [pc, #224]	; (80033f0 <vTaskList+0xf6>)
 8003310:	681b      	ldr	r3, [r3, #0]
 8003312:	015b      	lsls	r3, r3, #5
 8003314:	4618      	mov	r0, r3
 8003316:	f001 f965 	bl	80045e4 <pvPortMalloc>
 800331a:	6138      	str	r0, [r7, #16]
 800331c:	693b      	ldr	r3, [r7, #16]
 800331e:	2b00      	cmp	r3, #0
 8003320:	d061      	beq.n	80033e6 <vTaskList+0xec>
 8003322:	68fb      	ldr	r3, [r7, #12]
 8003324:	2200      	movs	r2, #0
 8003326:	4619      	mov	r1, r3
 8003328:	6938      	ldr	r0, [r7, #16]
 800332a:	f7ff f85f 	bl	80023ec <uxTaskGetSystemState>
 800332e:	4603      	mov	r3, r0
 8003330:	60fb      	str	r3, [r7, #12]
 8003332:	2300      	movs	r3, #0
 8003334:	60bb      	str	r3, [r7, #8]
 8003336:	e04f      	b.n	80033d8 <vTaskList+0xde>
 8003338:	68bb      	ldr	r3, [r7, #8]
 800333a:	015b      	lsls	r3, r3, #5
 800333c:	693a      	ldr	r2, [r7, #16]
 800333e:	4413      	add	r3, r2
 8003340:	7b1b      	ldrb	r3, [r3, #12]
 8003342:	3b01      	subs	r3, #1
 8003344:	2b03      	cmp	r3, #3
 8003346:	d817      	bhi.n	8003378 <vTaskList+0x7e>
 8003348:	a201      	add	r2, pc, #4	; (adr r2, 8003350 <vTaskList+0x56>)
 800334a:	f852 f023 	ldr.w	pc, [r2, r3, lsl #2]
 800334e:	bf00      	nop
 8003350:	08003361 	stmdaeq	r0, {r0, r5, r6, r8, r9, ip, sp}
 8003354:	08003367 	stmdaeq	r0, {r0, r1, r2, r5, r6, r8, r9, ip, sp}
 8003358:	0800336d 	stmdaeq	r0, {r0, r2, r3, r5, r6, r8, r9, ip, sp}
 800335c:	08003373 	stmdaeq	r0, {r0, r1, r4, r5, r6, r8, r9, ip, sp}
 8003360:	2352      	movs	r3, #82	; 0x52
 8003362:	75fb      	strb	r3, [r7, #23]
 8003364:	e00b      	b.n	800337e <vTaskList+0x84>
 8003366:	2342      	movs	r3, #66	; 0x42
 8003368:	75fb      	strb	r3, [r7, #23]
 800336a:	e008      	b.n	800337e <vTaskList+0x84>
 800336c:	2353      	movs	r3, #83	; 0x53
 800336e:	75fb      	strb	r3, [r7, #23]
 8003370:	e005      	b.n	800337e <vTaskList+0x84>
 8003372:	2344      	movs	r3, #68	; 0x44
 8003374:	75fb      	strb	r3, [r7, #23]
 8003376:	e002      	b.n	800337e <vTaskList+0x84>
 8003378:	2300      	movs	r3, #0
 800337a:	75fb      	strb	r3, [r7, #23]
 800337c:	bf00      	nop
 800337e:	68bb      	ldr	r3, [r7, #8]
 8003380:	015b      	lsls	r3, r3, #5
 8003382:	693a      	ldr	r2, [r7, #16]
 8003384:	4413      	add	r3, r2
 8003386:	685b      	ldr	r3, [r3, #4]
 8003388:	4619      	mov	r1, r3
 800338a:	6878      	ldr	r0, [r7, #4]
 800338c:	f7ff ff90 	bl	80032b0 <prvWriteNameToBuffer>
 8003390:	6078      	str	r0, [r7, #4]
 8003392:	7df9      	ldrb	r1, [r7, #23]
 8003394:	68bb      	ldr	r3, [r7, #8]
 8003396:	015b      	lsls	r3, r3, #5
 8003398:	693a      	ldr	r2, [r7, #16]
 800339a:	4413      	add	r3, r2
 800339c:	6918      	ldr	r0, [r3, #16]
 800339e:	68bb      	ldr	r3, [r7, #8]
 80033a0:	015b      	lsls	r3, r3, #5
 80033a2:	693a      	ldr	r2, [r7, #16]
 80033a4:	4413      	add	r3, r2
 80033a6:	8b9b      	ldrh	r3, [r3, #28]
 80033a8:	461c      	mov	r4, r3
 80033aa:	68bb      	ldr	r3, [r7, #8]
 80033ac:	015b      	lsls	r3, r3, #5
 80033ae:	693a      	ldr	r2, [r7, #16]
 80033b0:	4413      	add	r3, r2
 80033b2:	689b      	ldr	r3, [r3, #8]
 80033b4:	9301      	str	r3, [sp, #4]
 80033b6:	9400      	str	r4, [sp, #0]
 80033b8:	4603      	mov	r3, r0
 80033ba:	460a      	mov	r2, r1
 80033bc:	490d      	ldr	r1, [pc, #52]	; (80033f4 <vTaskList+0xfa>)
 80033be:	6878      	ldr	r0, [r7, #4]
 80033c0:	f00f fb62 	bl	8012a88 <sprintf>
 80033c4:	6878      	ldr	r0, [r7, #4]
 80033c6:	f00e fbbb 	bl	8011b40 <strlen>
 80033ca:	4602      	mov	r2, r0
 80033cc:	687b      	ldr	r3, [r7, #4]
 80033ce:	4413      	add	r3, r2
 80033d0:	607b      	str	r3, [r7, #4]
 80033d2:	68bb      	ldr	r3, [r7, #8]
 80033d4:	3301      	adds	r3, #1
 80033d6:	60bb      	str	r3, [r7, #8]
 80033d8:	68ba      	ldr	r2, [r7, #8]
 80033da:	68fb      	ldr	r3, [r7, #12]
 80033dc:	429a      	cmp	r2, r3
 80033de:	d3ab      	bcc.n	8003338 <vTaskList+0x3e>
 80033e0:	6938      	ldr	r0, [r7, #16]
 80033e2:	f001 f9c1 	bl	8004768 <vPortFree>
 80033e6:	bf00      	nop
 80033e8:	371c      	adds	r7, #28
 80033ea:	46bd      	mov	sp, r7
 80033ec:	bd90      	pop	{r4, r7, pc}
 80033ee:	bf00      	nop
 80033f0:	20000ab0 			; <UNDEFINED> instruction: 0x20000ab0
 80033f4:	08016d50 	stmdaeq	r1, {r4, r6, r8, sl, fp, sp, lr}

080033f8 <uxTaskResetEventItemValue>:
 80033f8:	b480      	push	{r7}
 80033fa:	b083      	sub	sp, #12
 80033fc:	af00      	add	r7, sp, #0
 80033fe:	4b09      	ldr	r3, [pc, #36]	; (8003424 <uxTaskResetEventItemValue+0x2c>)
 8003400:	681b      	ldr	r3, [r3, #0]
 8003402:	699b      	ldr	r3, [r3, #24]
 8003404:	607b      	str	r3, [r7, #4]
 8003406:	4b07      	ldr	r3, [pc, #28]	; (8003424 <uxTaskResetEventItemValue+0x2c>)
 8003408:	681b      	ldr	r3, [r3, #0]
 800340a:	6ada      	ldr	r2, [r3, #44]	; 0x2c
 800340c:	4b05      	ldr	r3, [pc, #20]	; (8003424 <uxTaskResetEventItemValue+0x2c>)
 800340e:	681b      	ldr	r3, [r3, #0]
 8003410:	f1c2 0205 	rsb	r2, r2, #5
 8003414:	619a      	str	r2, [r3, #24]
 8003416:	687b      	ldr	r3, [r7, #4]
 8003418:	4618      	mov	r0, r3
 800341a:	370c      	adds	r7, #12
 800341c:	46bd      	mov	sp, r7
 800341e:	f85d 7b04 	ldr.w	r7, [sp], #4
 8003422:	4770      	bx	lr
 8003424:	200009d8 	ldrdcs	r0, [r0], -r8

08003428 <pvTaskIncrementMutexHeldCount>:
 8003428:	b480      	push	{r7}
 800342a:	af00      	add	r7, sp, #0
 800342c:	4b07      	ldr	r3, [pc, #28]	; (800344c <pvTaskIncrementMutexHeldCount+0x24>)
 800342e:	681b      	ldr	r3, [r3, #0]
 8003430:	2b00      	cmp	r3, #0
 8003432:	d004      	beq.n	800343e <pvTaskIncrementMutexHeldCount+0x16>
 8003434:	4b05      	ldr	r3, [pc, #20]	; (800344c <pvTaskIncrementMutexHeldCount+0x24>)
 8003436:	681b      	ldr	r3, [r3, #0]
 8003438:	6d1a      	ldr	r2, [r3, #80]	; 0x50
 800343a:	3201      	adds	r2, #1
 800343c:	651a      	str	r2, [r3, #80]	; 0x50
 800343e:	4b03      	ldr	r3, [pc, #12]	; (800344c <pvTaskIncrementMutexHeldCount+0x24>)
 8003440:	681b      	ldr	r3, [r3, #0]
 8003442:	4618      	mov	r0, r3
 8003444:	46bd      	mov	sp, r7
 8003446:	f85d 7b04 	ldr.w	r7, [sp], #4
 800344a:	4770      	bx	lr
 800344c:	200009d8 	ldrdcs	r0, [r0], -r8

08003450 <ulTaskNotifyTake>:
 8003450:	b580      	push	{r7, lr}
 8003452:	b084      	sub	sp, #16
 8003454:	af00      	add	r7, sp, #0
 8003456:	6078      	str	r0, [r7, #4]
 8003458:	6039      	str	r1, [r7, #0]
 800345a:	f000 ffb3 	bl	80043c4 <vPortEnterCritical>
 800345e:	4b31      	ldr	r3, [pc, #196]	; (8003524 <ulTaskNotifyTake+0xd4>)
 8003460:	681b      	ldr	r3, [r3, #0]
 8003462:	6d5b      	ldr	r3, [r3, #84]	; 0x54
 8003464:	2b00      	cmp	r3, #0
 8003466:	d138      	bne.n	80034da <ulTaskNotifyTake+0x8a>
 8003468:	4b2e      	ldr	r3, [pc, #184]	; (8003524 <ulTaskNotifyTake+0xd4>)
 800346a:	681b      	ldr	r3, [r3, #0]
 800346c:	2201      	movs	r2, #1
 800346e:	f883 2058 	strb.w	r2, [r3, #88]	; 0x58
 8003472:	683b      	ldr	r3, [r7, #0]
 8003474:	2b00      	cmp	r3, #0
 8003476:	d030      	beq.n	80034da <ulTaskNotifyTake+0x8a>
 8003478:	4b2a      	ldr	r3, [pc, #168]	; (8003524 <ulTaskNotifyTake+0xd4>)
 800347a:	681b      	ldr	r3, [r3, #0]
 800347c:	3304      	adds	r3, #4
 800347e:	4618      	mov	r0, r3
 8003480:	f7fd f98c 	bl	800079c <uxListRemove>
 8003484:	4603      	mov	r3, r0
 8003486:	2b00      	cmp	r3, #0
 8003488:	d10b      	bne.n	80034a2 <ulTaskNotifyTake+0x52>
 800348a:	4b26      	ldr	r3, [pc, #152]	; (8003524 <ulTaskNotifyTake+0xd4>)
 800348c:	681b      	ldr	r3, [r3, #0]
 800348e:	6adb      	ldr	r3, [r3, #44]	; 0x2c
 8003490:	2201      	movs	r2, #1
 8003492:	fa02 f303 	lsl.w	r3, r2, r3
 8003496:	43da      	mvns	r2, r3
 8003498:	4b23      	ldr	r3, [pc, #140]	; (8003528 <ulTaskNotifyTake+0xd8>)
 800349a:	681b      	ldr	r3, [r3, #0]
 800349c:	4013      	ands	r3, r2
 800349e:	4a22      	ldr	r2, [pc, #136]	; (8003528 <ulTaskNotifyTake+0xd8>)
 80034a0:	6013      	str	r3, [r2, #0]
 80034a2:	683b      	ldr	r3, [r7, #0]
 80034a4:	f1b3 3fff 	cmp.w	r3, #4294967295	; 0xffffffff
 80034a8:	d107      	bne.n	80034ba <ulTaskNotifyTake+0x6a>
 80034aa:	4b1e      	ldr	r3, [pc, #120]	; (8003524 <ulTaskNotifyTake+0xd4>)
 80034ac:	681b      	ldr	r3, [r3, #0]
 80034ae:	3304      	adds	r3, #4
 80034b0:	4619      	mov	r1, r3
 80034b2:	481e      	ldr	r0, [pc, #120]	; (800352c <ulTaskNotifyTake+0xdc>)
 80034b4:	f7fd f915 	bl	80006e2 <vListInsertEnd>
 80034b8:	e007      	b.n	80034ca <ulTaskNotifyTake+0x7a>
 80034ba:	4b1d      	ldr	r3, [pc, #116]	; (8003530 <ulTaskNotifyTake+0xe0>)
 80034bc:	681b      	ldr	r3, [r3, #0]
 80034be:	683a      	ldr	r2, [r7, #0]
 80034c0:	4413      	add	r3, r2
 80034c2:	60fb      	str	r3, [r7, #12]
 80034c4:	68f8      	ldr	r0, [r7, #12]
 80034c6:	f7ff fc83 	bl	8002dd0 <prvAddCurrentTaskToDelayedList>
 80034ca:	4b1a      	ldr	r3, [pc, #104]	; (8003534 <ulTaskNotifyTake+0xe4>)
 80034cc:	f04f 5280 	mov.w	r2, #268435456	; 0x10000000
 80034d0:	601a      	str	r2, [r3, #0]
 80034d2:	f3bf 8f4f 	dsb	sy
 80034d6:	f3bf 8f6f 	isb	sy
 80034da:	f000 ffa1 	bl	8004420 <vPortExitCritical>
 80034de:	f000 ff71 	bl	80043c4 <vPortEnterCritical>
 80034e2:	4b10      	ldr	r3, [pc, #64]	; (8003524 <ulTaskNotifyTake+0xd4>)
 80034e4:	681b      	ldr	r3, [r3, #0]
 80034e6:	6d5b      	ldr	r3, [r3, #84]	; 0x54
 80034e8:	60bb      	str	r3, [r7, #8]
 80034ea:	68bb      	ldr	r3, [r7, #8]
 80034ec:	2b00      	cmp	r3, #0
 80034ee:	d00c      	beq.n	800350a <ulTaskNotifyTake+0xba>
 80034f0:	687b      	ldr	r3, [r7, #4]
 80034f2:	2b00      	cmp	r3, #0
 80034f4:	d004      	beq.n	8003500 <ulTaskNotifyTake+0xb0>
 80034f6:	4b0b      	ldr	r3, [pc, #44]	; (8003524 <ulTaskNotifyTake+0xd4>)
 80034f8:	681b      	ldr	r3, [r3, #0]
 80034fa:	2200      	movs	r2, #0
 80034fc:	655a      	str	r2, [r3, #84]	; 0x54
 80034fe:	e004      	b.n	800350a <ulTaskNotifyTake+0xba>
 8003500:	4b08      	ldr	r3, [pc, #32]	; (8003524 <ulTaskNotifyTake+0xd4>)
 8003502:	681b      	ldr	r3, [r3, #0]
 8003504:	6d5a      	ldr	r2, [r3, #84]	; 0x54
 8003506:	3a01      	subs	r2, #1
 8003508:	655a      	str	r2, [r3, #84]	; 0x54
 800350a:	4b06      	ldr	r3, [pc, #24]	; (8003524 <ulTaskNotifyTake+0xd4>)
 800350c:	681b      	ldr	r3, [r3, #0]
 800350e:	2200      	movs	r2, #0
 8003510:	f883 2058 	strb.w	r2, [r3, #88]	; 0x58
 8003514:	f000 ff84 	bl	8004420 <vPortExitCritical>
 8003518:	68bb      	ldr	r3, [r7, #8]
 800351a:	4618      	mov	r0, r3
 800351c:	3710      	adds	r7, #16
 800351e:	46bd      	mov	sp, r7
 8003520:	bd80      	pop	{r7, pc}
 8003522:	bf00      	nop
 8003524:	200009d8 	ldrdcs	r0, [r0], -r8
 8003528:	20000ab8 			; <UNDEFINED> instruction: 0x20000ab8
 800352c:	20000a9c 	mulcs	r0, ip, sl
 8003530:	20000ab4 			; <UNDEFINED> instruction: 0x20000ab4
 8003534:	e000ed04 	and	lr, r0, r4, lsl #26

08003538 <xTaskNotifyWait>:
 8003538:	b580      	push	{r7, lr}
 800353a:	b086      	sub	sp, #24
 800353c:	af00      	add	r7, sp, #0
 800353e:	60f8      	str	r0, [r7, #12]
 8003540:	60b9      	str	r1, [r7, #8]
 8003542:	607a      	str	r2, [r7, #4]
 8003544:	603b      	str	r3, [r7, #0]
 8003546:	f000 ff3d 	bl	80043c4 <vPortEnterCritical>
 800354a:	4b39      	ldr	r3, [pc, #228]	; (8003630 <xTaskNotifyWait+0xf8>)
 800354c:	681b      	ldr	r3, [r3, #0]
 800354e:	f893 3058 	ldrb.w	r3, [r3, #88]	; 0x58
 8003552:	b2db      	uxtb	r3, r3
 8003554:	2b02      	cmp	r3, #2
 8003556:	d03f      	beq.n	80035d8 <xTaskNotifyWait+0xa0>
 8003558:	4b35      	ldr	r3, [pc, #212]	; (8003630 <xTaskNotifyWait+0xf8>)
 800355a:	681b      	ldr	r3, [r3, #0]
 800355c:	6d59      	ldr	r1, [r3, #84]	; 0x54
 800355e:	68fa      	ldr	r2, [r7, #12]
 8003560:	43d2      	mvns	r2, r2
 8003562:	400a      	ands	r2, r1
 8003564:	655a      	str	r2, [r3, #84]	; 0x54
 8003566:	4b32      	ldr	r3, [pc, #200]	; (8003630 <xTaskNotifyWait+0xf8>)
 8003568:	681b      	ldr	r3, [r3, #0]
 800356a:	2201      	movs	r2, #1
 800356c:	f883 2058 	strb.w	r2, [r3, #88]	; 0x58
 8003570:	683b      	ldr	r3, [r7, #0]
 8003572:	2b00      	cmp	r3, #0
 8003574:	d030      	beq.n	80035d8 <xTaskNotifyWait+0xa0>
 8003576:	4b2e      	ldr	r3, [pc, #184]	; (8003630 <xTaskNotifyWait+0xf8>)
 8003578:	681b      	ldr	r3, [r3, #0]
 800357a:	3304      	adds	r3, #4
 800357c:	4618      	mov	r0, r3
